
/home/anhngo/pintos/src/examples/matmult:     file format elf32-i386


Disassembly of section .text:

080480a0 <main>:
 80480a0:	55                   	push   ebp
 80480a1:	89 e5                	mov    ebp,esp
 80480a3:	57                   	push   edi
 80480a4:	56                   	push   esi
 80480a5:	53                   	push   ebx
 80480a6:	83 e4 f0             	and    esp,0xfffffff0
 80480a9:	83 ec 30             	sub    esp,0x30
 80480ac:	e8 e4 21 00 00       	call   804a295 <__x86.get_pc_thunk.dx>
 80480b1:	81 c2 4f 2f 00 00    	add    edx,0x2f4f
 80480b7:	89 54 24 18          	mov    DWORD PTR [esp+0x18],edx
 80480bb:	8d 82 80 00 20 00    	lea    eax,[edx+0x200080]
 80480c1:	8d 9a 80 00 10 00    	lea    ebx,[edx+0x100080]
 80480c7:	89 5c 24 1c          	mov    DWORD PTR [esp+0x1c],ebx
 80480cb:	8d 92 80 00 00 00    	lea    edx,[edx+0x80]
 80480d1:	89 54 24 20          	mov    DWORD PTR [esp+0x20],edx
 80480d5:	8d b8 00 00 10 00    	lea    edi,[eax+0x100000]
 80480db:	89 d6                	mov    esi,edx
 80480dd:	89 c2                	mov    edx,eax
 80480df:	b9 00 00 00 00       	mov    ecx,0x0
 80480e4:	89 44 24 2c          	mov    DWORD PTR [esp+0x2c],eax
 80480e8:	b8 00 00 00 00       	mov    eax,0x0
 80480ed:	89 0c 82             	mov    DWORD PTR [edx+eax*4],ecx
 80480f0:	89 04 83             	mov    DWORD PTR [ebx+eax*4],eax
 80480f3:	c7 04 86 00 00 00 00 	mov    DWORD PTR [esi+eax*4],0x0
 80480fa:	40                   	inc    eax
 80480fb:	3d 00 02 00 00       	cmp    eax,0x200
 8048100:	75 eb                	jne    80480ed <main+0x4d>
 8048102:	41                   	inc    ecx
 8048103:	81 c2 00 08 00 00    	add    edx,0x800
 8048109:	81 c3 00 08 00 00    	add    ebx,0x800
 804810f:	81 c6 00 08 00 00    	add    esi,0x800
 8048115:	39 fa                	cmp    edx,edi
 8048117:	75 cf                	jne    80480e8 <main+0x48>
 8048119:	8b 44 24 2c          	mov    eax,DWORD PTR [esp+0x2c]
 804811d:	bb 00 00 00 00       	mov    ebx,0x0
 8048122:	8b 54 24 1c          	mov    edx,DWORD PTR [esp+0x1c]
 8048126:	81 c2 00 08 10 00    	add    edx,0x100800
 804812c:	89 54 24 28          	mov    DWORD PTR [esp+0x28],edx
 8048130:	8b 54 24 1c          	mov    edx,DWORD PTR [esp+0x1c]
 8048134:	8d b2 00 00 10 00    	lea    esi,[edx+0x100000]
 804813a:	89 da                	mov    edx,ebx
 804813c:	c1 e2 0b             	shl    edx,0xb
 804813f:	01 c2                	add    edx,eax
 8048141:	89 54 24 24          	mov    DWORD PTR [esp+0x24],edx
 8048145:	8b 54 24 20          	mov    edx,DWORD PTR [esp+0x20]
 8048149:	89 5c 24 14          	mov    DWORD PTR [esp+0x14],ebx
 804814d:	89 44 24 10          	mov    DWORD PTR [esp+0x10],eax
 8048151:	89 54 24 2c          	mov    DWORD PTR [esp+0x2c],edx
 8048155:	8b 3a                	mov    edi,DWORD PTR [edx]
 8048157:	8d 86 00 00 f0 ff    	lea    eax,[esi-0x100000]
 804815d:	8b 5c 24 24          	mov    ebx,DWORD PTR [esp+0x24]
 8048161:	8b 0b                	mov    ecx,DWORD PTR [ebx]
 8048163:	0f af 08             	imul   ecx,DWORD PTR [eax]
 8048166:	01 cf                	add    edi,ecx
 8048168:	83 c3 04             	add    ebx,0x4
 804816b:	05 00 08 00 00       	add    eax,0x800
 8048170:	39 f0                	cmp    eax,esi
 8048172:	75 ed                	jne    8048161 <main+0xc1>
 8048174:	8b 44 24 2c          	mov    eax,DWORD PTR [esp+0x2c]
 8048178:	89 38                	mov    DWORD PTR [eax],edi
 804817a:	83 c2 04             	add    edx,0x4
 804817d:	83 c6 04             	add    esi,0x4
 8048180:	8b 44 24 28          	mov    eax,DWORD PTR [esp+0x28]
 8048184:	39 c6                	cmp    esi,eax
 8048186:	75 c9                	jne    8048151 <main+0xb1>
 8048188:	8b 5c 24 14          	mov    ebx,DWORD PTR [esp+0x14]
 804818c:	8b 44 24 10          	mov    eax,DWORD PTR [esp+0x10]
 8048190:	43                   	inc    ebx
 8048191:	81 44 24 20 00 08 00 	add    DWORD PTR [esp+0x20],0x800
 8048198:	00 
 8048199:	81 fb 00 02 00 00    	cmp    ebx,0x200
 804819f:	75 8f                	jne    8048130 <main+0x90>
 80481a1:	8b 5c 24 18          	mov    ebx,DWORD PTR [esp+0x18]
 80481a5:	8b 83 7c 00 10 00    	mov    eax,DWORD PTR [ebx+0x10007c]
 80481ab:	89 04 24             	mov    DWORD PTR [esp],eax
 80481ae:	e8 6f 00 00 00       	call   8048222 <exit>

080481b3 <_start>:
 80481b3:	55                   	push   ebp
 80481b4:	89 e5                	mov    ebp,esp
 80481b6:	53                   	push   ebx
 80481b7:	83 ec 14             	sub    esp,0x14
 80481ba:	e8 da 20 00 00       	call   804a299 <__x86.get_pc_thunk.bx>
 80481bf:	81 c3 41 2e 00 00    	add    ebx,0x2e41
 80481c5:	8b 45 0c             	mov    eax,DWORD PTR [ebp+0xc]
 80481c8:	89 44 24 04          	mov    DWORD PTR [esp+0x4],eax
 80481cc:	8b 45 08             	mov    eax,DWORD PTR [ebp+0x8]
 80481cf:	89 04 24             	mov    DWORD PTR [esp],eax
 80481d2:	e8 c9 fe ff ff       	call   80480a0 <main>
 80481d7:	89 04 24             	mov    DWORD PTR [esp],eax
 80481da:	e8 43 00 00 00       	call   8048222 <exit>

080481df <halt>:
 80481df:	55                   	push   ebp
 80481e0:	89 e5                	mov    ebp,esp
 80481e2:	53                   	push   ebx
 80481e3:	83 ec 14             	sub    esp,0x14
 80481e6:	e8 ae 20 00 00       	call   804a299 <__x86.get_pc_thunk.bx>
 80481eb:	81 c3 15 2e 00 00    	add    ebx,0x2e15
 80481f1:	6a 00                	push   0x0
 80481f3:	cd 30                	int    0x30
 80481f5:	83 c4 04             	add    esp,0x4
 80481f8:	8d 83 5c fa ff ff    	lea    eax,[ebx-0x5a4]
 80481fe:	89 44 24 0c          	mov    DWORD PTR [esp+0xc],eax
 8048202:	8d 83 b8 f2 ff ff    	lea    eax,[ebx-0xd48]
 8048208:	89 44 24 08          	mov    DWORD PTR [esp+0x8],eax
 804820c:	c7 44 24 04 44 00 00 	mov    DWORD PTR [esp+0x4],0x44
 8048213:	00 
 8048214:	8d 83 43 fb ff ff    	lea    eax,[ebx-0x4bd]
 804821a:	89 04 24             	mov    DWORD PTR [esp],eax
 804821d:	e8 98 01 00 00       	call   80483ba <debug_panic>

08048222 <exit>:
 8048222:	55                   	push   ebp
 8048223:	89 e5                	mov    ebp,esp
 8048225:	53                   	push   ebx
 8048226:	83 ec 14             	sub    esp,0x14
 8048229:	e8 6b 20 00 00       	call   804a299 <__x86.get_pc_thunk.bx>
 804822e:	81 c3 d2 2d 00 00    	add    ebx,0x2dd2
 8048234:	ff 75 08             	push   DWORD PTR [ebp+0x8]
 8048237:	6a 01                	push   0x1
 8048239:	cd 30                	int    0x30
 804823b:	83 c4 08             	add    esp,0x8
 804823e:	8d 83 5c fa ff ff    	lea    eax,[ebx-0x5a4]
 8048244:	89 44 24 0c          	mov    DWORD PTR [esp+0xc],eax
 8048248:	8d 83 b0 f2 ff ff    	lea    eax,[ebx-0xd50]
 804824e:	89 44 24 08          	mov    DWORD PTR [esp+0x8],eax
 8048252:	c7 44 24 04 4b 00 00 	mov    DWORD PTR [esp+0x4],0x4b
 8048259:	00 
 804825a:	8d 83 43 fb ff ff    	lea    eax,[ebx-0x4bd]
 8048260:	89 04 24             	mov    DWORD PTR [esp],eax
 8048263:	e8 52 01 00 00       	call   80483ba <debug_panic>

08048268 <exec>:
 8048268:	55                   	push   ebp
 8048269:	89 e5                	mov    ebp,esp
 804826b:	ff 75 08             	push   DWORD PTR [ebp+0x8]
 804826e:	6a 02                	push   0x2
 8048270:	cd 30                	int    0x30
 8048272:	83 c4 08             	add    esp,0x8
 8048275:	5d                   	pop    ebp
 8048276:	c3                   	ret

08048277 <wait>:
 8048277:	55                   	push   ebp
 8048278:	89 e5                	mov    ebp,esp
 804827a:	ff 75 08             	push   DWORD PTR [ebp+0x8]
 804827d:	6a 03                	push   0x3
 804827f:	cd 30                	int    0x30
 8048281:	83 c4 08             	add    esp,0x8
 8048284:	5d                   	pop    ebp
 8048285:	c3                   	ret

08048286 <create>:
 8048286:	55                   	push   ebp
 8048287:	89 e5                	mov    ebp,esp
 8048289:	8b 45 08             	mov    eax,DWORD PTR [ebp+0x8]
 804828c:	8b 55 0c             	mov    edx,DWORD PTR [ebp+0xc]
 804828f:	52                   	push   edx
 8048290:	50                   	push   eax
 8048291:	6a 04                	push   0x4
 8048293:	cd 30                	int    0x30
 8048295:	83 c4 0c             	add    esp,0xc
 8048298:	85 c0                	test   eax,eax
 804829a:	0f 95 c0             	setne  al
 804829d:	5d                   	pop    ebp
 804829e:	c3                   	ret

0804829f <remove>:
 804829f:	55                   	push   ebp
 80482a0:	89 e5                	mov    ebp,esp
 80482a2:	ff 75 08             	push   DWORD PTR [ebp+0x8]
 80482a5:	6a 05                	push   0x5
 80482a7:	cd 30                	int    0x30
 80482a9:	83 c4 08             	add    esp,0x8
 80482ac:	85 c0                	test   eax,eax
 80482ae:	0f 95 c0             	setne  al
 80482b1:	5d                   	pop    ebp
 80482b2:	c3                   	ret

080482b3 <open>:
 80482b3:	55                   	push   ebp
 80482b4:	89 e5                	mov    ebp,esp
 80482b6:	ff 75 08             	push   DWORD PTR [ebp+0x8]
 80482b9:	6a 06                	push   0x6
 80482bb:	cd 30                	int    0x30
 80482bd:	83 c4 08             	add    esp,0x8
 80482c0:	5d                   	pop    ebp
 80482c1:	c3                   	ret

080482c2 <filesize>:
 80482c2:	55                   	push   ebp
 80482c3:	89 e5                	mov    ebp,esp
 80482c5:	ff 75 08             	push   DWORD PTR [ebp+0x8]
 80482c8:	6a 07                	push   0x7
 80482ca:	cd 30                	int    0x30
 80482cc:	83 c4 08             	add    esp,0x8
 80482cf:	5d                   	pop    ebp
 80482d0:	c3                   	ret

080482d1 <read>:
 80482d1:	55                   	push   ebp
 80482d2:	89 e5                	mov    ebp,esp
 80482d4:	8b 45 08             	mov    eax,DWORD PTR [ebp+0x8]
 80482d7:	8b 55 0c             	mov    edx,DWORD PTR [ebp+0xc]
 80482da:	8b 4d 10             	mov    ecx,DWORD PTR [ebp+0x10]
 80482dd:	51                   	push   ecx
 80482de:	52                   	push   edx
 80482df:	50                   	push   eax
 80482e0:	6a 08                	push   0x8
 80482e2:	cd 30                	int    0x30
 80482e4:	83 c4 10             	add    esp,0x10
 80482e7:	5d                   	pop    ebp
 80482e8:	c3                   	ret

080482e9 <write>:
 80482e9:	55                   	push   ebp
 80482ea:	89 e5                	mov    ebp,esp
 80482ec:	8b 45 08             	mov    eax,DWORD PTR [ebp+0x8]
 80482ef:	8b 55 0c             	mov    edx,DWORD PTR [ebp+0xc]
 80482f2:	8b 4d 10             	mov    ecx,DWORD PTR [ebp+0x10]
 80482f5:	51                   	push   ecx
 80482f6:	52                   	push   edx
 80482f7:	50                   	push   eax
 80482f8:	6a 09                	push   0x9
 80482fa:	cd 30                	int    0x30
 80482fc:	83 c4 10             	add    esp,0x10
 80482ff:	5d                   	pop    ebp
 8048300:	c3                   	ret

08048301 <seek>:
 8048301:	55                   	push   ebp
 8048302:	89 e5                	mov    ebp,esp
 8048304:	8b 45 08             	mov    eax,DWORD PTR [ebp+0x8]
 8048307:	8b 55 0c             	mov    edx,DWORD PTR [ebp+0xc]
 804830a:	52                   	push   edx
 804830b:	50                   	push   eax
 804830c:	6a 0a                	push   0xa
 804830e:	cd 30                	int    0x30
 8048310:	83 c4 0c             	add    esp,0xc
 8048313:	5d                   	pop    ebp
 8048314:	c3                   	ret

08048315 <tell>:
 8048315:	55                   	push   ebp
 8048316:	89 e5                	mov    ebp,esp
 8048318:	ff 75 08             	push   DWORD PTR [ebp+0x8]
 804831b:	6a 0b                	push   0xb
 804831d:	cd 30                	int    0x30
 804831f:	83 c4 08             	add    esp,0x8
 8048322:	5d                   	pop    ebp
 8048323:	c3                   	ret

08048324 <close>:
 8048324:	55                   	push   ebp
 8048325:	89 e5                	mov    ebp,esp
 8048327:	ff 75 08             	push   DWORD PTR [ebp+0x8]
 804832a:	6a 0c                	push   0xc
 804832c:	cd 30                	int    0x30
 804832e:	83 c4 08             	add    esp,0x8
 8048331:	5d                   	pop    ebp
 8048332:	c3                   	ret

08048333 <mmap>:
 8048333:	55                   	push   ebp
 8048334:	89 e5                	mov    ebp,esp
 8048336:	8b 45 08             	mov    eax,DWORD PTR [ebp+0x8]
 8048339:	8b 55 0c             	mov    edx,DWORD PTR [ebp+0xc]
 804833c:	52                   	push   edx
 804833d:	50                   	push   eax
 804833e:	6a 0d                	push   0xd
 8048340:	cd 30                	int    0x30
 8048342:	83 c4 0c             	add    esp,0xc
 8048345:	5d                   	pop    ebp
 8048346:	c3                   	ret

08048347 <munmap>:
 8048347:	55                   	push   ebp
 8048348:	89 e5                	mov    ebp,esp
 804834a:	ff 75 08             	push   DWORD PTR [ebp+0x8]
 804834d:	6a 0e                	push   0xe
 804834f:	cd 30                	int    0x30
 8048351:	83 c4 08             	add    esp,0x8
 8048354:	5d                   	pop    ebp
 8048355:	c3                   	ret

08048356 <chdir>:
 8048356:	55                   	push   ebp
 8048357:	89 e5                	mov    ebp,esp
 8048359:	ff 75 08             	push   DWORD PTR [ebp+0x8]
 804835c:	6a 0f                	push   0xf
 804835e:	cd 30                	int    0x30
 8048360:	83 c4 08             	add    esp,0x8
 8048363:	85 c0                	test   eax,eax
 8048365:	0f 95 c0             	setne  al
 8048368:	5d                   	pop    ebp
 8048369:	c3                   	ret

0804836a <mkdir>:
 804836a:	55                   	push   ebp
 804836b:	89 e5                	mov    ebp,esp
 804836d:	ff 75 08             	push   DWORD PTR [ebp+0x8]
 8048370:	6a 10                	push   0x10
 8048372:	cd 30                	int    0x30
 8048374:	83 c4 08             	add    esp,0x8
 8048377:	85 c0                	test   eax,eax
 8048379:	0f 95 c0             	setne  al
 804837c:	5d                   	pop    ebp
 804837d:	c3                   	ret

0804837e <readdir>:
 804837e:	55                   	push   ebp
 804837f:	89 e5                	mov    ebp,esp
 8048381:	8b 45 08             	mov    eax,DWORD PTR [ebp+0x8]
 8048384:	8b 55 0c             	mov    edx,DWORD PTR [ebp+0xc]
 8048387:	52                   	push   edx
 8048388:	50                   	push   eax
 8048389:	6a 11                	push   0x11
 804838b:	cd 30                	int    0x30
 804838d:	83 c4 0c             	add    esp,0xc
 8048390:	85 c0                	test   eax,eax
 8048392:	0f 95 c0             	setne  al
 8048395:	5d                   	pop    ebp
 8048396:	c3                   	ret

08048397 <isdir>:
 8048397:	55                   	push   ebp
 8048398:	89 e5                	mov    ebp,esp
 804839a:	ff 75 08             	push   DWORD PTR [ebp+0x8]
 804839d:	6a 12                	push   0x12
 804839f:	cd 30                	int    0x30
 80483a1:	83 c4 08             	add    esp,0x8
 80483a4:	85 c0                	test   eax,eax
 80483a6:	0f 95 c0             	setne  al
 80483a9:	5d                   	pop    ebp
 80483aa:	c3                   	ret

080483ab <inumber>:
 80483ab:	55                   	push   ebp
 80483ac:	89 e5                	mov    ebp,esp
 80483ae:	ff 75 08             	push   DWORD PTR [ebp+0x8]
 80483b1:	6a 13                	push   0x13
 80483b3:	cd 30                	int    0x30
 80483b5:	83 c4 08             	add    esp,0x8
 80483b8:	5d                   	pop    ebp
 80483b9:	c3                   	ret

080483ba <debug_panic>:
 80483ba:	55                   	push   ebp
 80483bb:	89 e5                	mov    ebp,esp
 80483bd:	53                   	push   ebx
 80483be:	83 ec 14             	sub    esp,0x14
 80483c1:	e8 d3 1e 00 00       	call   804a299 <__x86.get_pc_thunk.bx>
 80483c6:	81 c3 3a 2c 00 00    	add    ebx,0x2c3a
 80483cc:	8b 45 10             	mov    eax,DWORD PTR [ebp+0x10]
 80483cf:	89 44 24 0c          	mov    DWORD PTR [esp+0xc],eax
 80483d3:	8b 45 0c             	mov    eax,DWORD PTR [ebp+0xc]
 80483d6:	89 44 24 08          	mov    DWORD PTR [esp+0x8],eax
 80483da:	8b 45 08             	mov    eax,DWORD PTR [ebp+0x8]
 80483dd:	89 44 24 04          	mov    DWORD PTR [esp+0x4],eax
 80483e1:	8d 83 80 fa ff ff    	lea    eax,[ebx-0x580]
 80483e7:	89 04 24             	mov    DWORD PTR [esp],eax
 80483ea:	e8 65 06 00 00       	call   8048a54 <printf>
 80483ef:	8d 45 18             	lea    eax,[ebp+0x18]
 80483f2:	89 44 24 04          	mov    DWORD PTR [esp+0x4],eax
 80483f6:	8b 45 14             	mov    eax,DWORD PTR [ebp+0x14]
 80483f9:	89 04 24             	mov    DWORD PTR [esp],eax
 80483fc:	e8 88 01 00 00       	call   8048589 <vprintf>
 8048401:	8d 83 69 fb ff ff    	lea    eax,[ebx-0x497]
 8048407:	89 04 24             	mov    DWORD PTR [esp],eax
 804840a:	e8 45 06 00 00       	call   8048a54 <printf>
 804840f:	e8 bc 01 00 00       	call   80485d0 <debug_backtrace>
 8048414:	c7 04 24 01 00 00 00 	mov    DWORD PTR [esp],0x1
 804841b:	e8 02 fe ff ff       	call   8048222 <exit>

08048420 <flush>:
 8048420:	55                   	push   ebp
 8048421:	89 e5                	mov    ebp,esp
 8048423:	83 ec 18             	sub    esp,0x18
 8048426:	89 5d f8             	mov    DWORD PTR [ebp-0x8],ebx
 8048429:	89 75 fc             	mov    DWORD PTR [ebp-0x4],esi
 804842c:	e8 68 1e 00 00       	call   804a299 <__x86.get_pc_thunk.bx>
 8048431:	81 c3 cf 2b 00 00    	add    ebx,0x2bcf
 8048437:	89 c6                	mov    esi,eax
 8048439:	8b 40 40             	mov    eax,DWORD PTR [eax+0x40]
 804843c:	39 c6                	cmp    esi,eax
 804843e:	72 0d                	jb     804844d <flush+0x2d>
 8048440:	89 76 40             	mov    DWORD PTR [esi+0x40],esi
 8048443:	8b 5d f8             	mov    ebx,DWORD PTR [ebp-0x8]
 8048446:	8b 75 fc             	mov    esi,DWORD PTR [ebp-0x4]
 8048449:	89 ec                	mov    esp,ebp
 804844b:	5d                   	pop    ebp
 804844c:	c3                   	ret
 804844d:	29 f0                	sub    eax,esi
 804844f:	89 44 24 08          	mov    DWORD PTR [esp+0x8],eax
 8048453:	89 74 24 04          	mov    DWORD PTR [esp+0x4],esi
 8048457:	8b 46 48             	mov    eax,DWORD PTR [esi+0x48]
 804845a:	89 04 24             	mov    DWORD PTR [esp],eax
 804845d:	e8 87 fe ff ff       	call   80482e9 <write>
 8048462:	eb dc                	jmp    8048440 <flush+0x20>

08048464 <add_char>:
 8048464:	55                   	push   ebp
 8048465:	89 e5                	mov    ebp,esp
 8048467:	83 ec 08             	sub    esp,0x8
 804846a:	89 5d fc             	mov    DWORD PTR [ebp-0x4],ebx
 804846d:	8b 5d 0c             	mov    ebx,DWORD PTR [ebp+0xc]
 8048470:	8b 43 40             	mov    eax,DWORD PTR [ebx+0x40]
 8048473:	8d 50 01             	lea    edx,[eax+0x1]
 8048476:	89 53 40             	mov    DWORD PTR [ebx+0x40],edx
 8048479:	0f b6 4d 08          	movzx  ecx,BYTE PTR [ebp+0x8]
 804847d:	88 08                	mov    BYTE PTR [eax],cl
 804847f:	8d 43 40             	lea    eax,[ebx+0x40]
 8048482:	39 43 40             	cmp    DWORD PTR [ebx+0x40],eax
 8048485:	73 0a                	jae    8048491 <add_char+0x2d>
 8048487:	ff 43 44             	inc    DWORD PTR [ebx+0x44]
 804848a:	8b 5d fc             	mov    ebx,DWORD PTR [ebp-0x4]
 804848d:	89 ec                	mov    esp,ebp
 804848f:	5d                   	pop    ebp
 8048490:	c3                   	ret
 8048491:	89 d8                	mov    eax,ebx
 8048493:	e8 88 ff ff ff       	call   8048420 <flush>
 8048498:	eb ed                	jmp    8048487 <add_char+0x23>

0804849a <putchar>:
 804849a:	55                   	push   ebp
 804849b:	89 e5                	mov    ebp,esp
 804849d:	83 ec 28             	sub    esp,0x28
 80484a0:	89 5d fc             	mov    DWORD PTR [ebp-0x4],ebx
 80484a3:	e8 f1 1d 00 00       	call   804a299 <__x86.get_pc_thunk.bx>
 80484a8:	81 c3 58 2b 00 00    	add    ebx,0x2b58
 80484ae:	0f b6 45 08          	movzx  eax,BYTE PTR [ebp+0x8]
 80484b2:	88 45 f7             	mov    BYTE PTR [ebp-0x9],al
 80484b5:	c7 44 24 08 01 00 00 	mov    DWORD PTR [esp+0x8],0x1
 80484bc:	00 
 80484bd:	8d 45 f7             	lea    eax,[ebp-0x9]
 80484c0:	89 44 24 04          	mov    DWORD PTR [esp+0x4],eax
 80484c4:	c7 04 24 01 00 00 00 	mov    DWORD PTR [esp],0x1
 80484cb:	e8 19 fe ff ff       	call   80482e9 <write>
 80484d0:	8b 45 08             	mov    eax,DWORD PTR [ebp+0x8]
 80484d3:	8b 5d fc             	mov    ebx,DWORD PTR [ebp-0x4]
 80484d6:	89 ec                	mov    esp,ebp
 80484d8:	5d                   	pop    ebp
 80484d9:	c3                   	ret

080484da <puts>:
 80484da:	55                   	push   ebp
 80484db:	89 e5                	mov    ebp,esp
 80484dd:	83 ec 18             	sub    esp,0x18
 80484e0:	89 5d f8             	mov    DWORD PTR [ebp-0x8],ebx
 80484e3:	89 75 fc             	mov    DWORD PTR [ebp-0x4],esi
 80484e6:	e8 ae 1d 00 00       	call   804a299 <__x86.get_pc_thunk.bx>
 80484eb:	81 c3 15 2b 00 00    	add    ebx,0x2b15
 80484f1:	8b 75 08             	mov    esi,DWORD PTR [ebp+0x8]
 80484f4:	89 34 24             	mov    DWORD PTR [esp],esi
 80484f7:	e8 c9 17 00 00       	call   8049cc5 <strlen>
 80484fc:	89 44 24 08          	mov    DWORD PTR [esp+0x8],eax
 8048500:	89 74 24 04          	mov    DWORD PTR [esp+0x4],esi
 8048504:	c7 04 24 01 00 00 00 	mov    DWORD PTR [esp],0x1
 804850b:	e8 d9 fd ff ff       	call   80482e9 <write>
 8048510:	c7 04 24 0a 00 00 00 	mov    DWORD PTR [esp],0xa
 8048517:	e8 7e ff ff ff       	call   804849a <putchar>
 804851c:	b8 00 00 00 00       	mov    eax,0x0
 8048521:	8b 5d f8             	mov    ebx,DWORD PTR [ebp-0x8]
 8048524:	8b 75 fc             	mov    esi,DWORD PTR [ebp-0x4]
 8048527:	89 ec                	mov    esp,ebp
 8048529:	5d                   	pop    ebp
 804852a:	c3                   	ret

0804852b <vhprintf>:
 804852b:	55                   	push   ebp
 804852c:	89 e5                	mov    ebp,esp
 804852e:	83 ec 68             	sub    esp,0x68
 8048531:	89 5d f8             	mov    DWORD PTR [ebp-0x8],ebx
 8048534:	89 75 fc             	mov    DWORD PTR [ebp-0x4],esi
 8048537:	e8 5d 1d 00 00       	call   804a299 <__x86.get_pc_thunk.bx>
 804853c:	81 c3 c4 2a 00 00    	add    ebx,0x2ac4
 8048542:	8d 75 ac             	lea    esi,[ebp-0x54]
 8048545:	89 75 ec             	mov    DWORD PTR [ebp-0x14],esi
 8048548:	c7 45 f0 00 00 00 00 	mov    DWORD PTR [ebp-0x10],0x0
 804854f:	8b 45 08             	mov    eax,DWORD PTR [ebp+0x8]
 8048552:	89 45 f4             	mov    DWORD PTR [ebp-0xc],eax
 8048555:	89 74 24 0c          	mov    DWORD PTR [esp+0xc],esi
 8048559:	8d 83 64 d4 ff ff    	lea    eax,[ebx-0x2b9c]
 804855f:	89 44 24 08          	mov    DWORD PTR [esp+0x8],eax
 8048563:	8b 45 10             	mov    eax,DWORD PTR [ebp+0x10]
 8048566:	89 44 24 04          	mov    DWORD PTR [esp+0x4],eax
 804856a:	8b 45 0c             	mov    eax,DWORD PTR [ebp+0xc]
 804856d:	89 04 24             	mov    DWORD PTR [esp],eax
 8048570:	e8 36 05 00 00       	call   8048aab <__vprintf>
 8048575:	89 f0                	mov    eax,esi
 8048577:	e8 a4 fe ff ff       	call   8048420 <flush>
 804857c:	8b 45 f0             	mov    eax,DWORD PTR [ebp-0x10]
 804857f:	8b 5d f8             	mov    ebx,DWORD PTR [ebp-0x8]
 8048582:	8b 75 fc             	mov    esi,DWORD PTR [ebp-0x4]
 8048585:	89 ec                	mov    esp,ebp
 8048587:	5d                   	pop    ebp
 8048588:	c3                   	ret

08048589 <vprintf>:
 8048589:	55                   	push   ebp
 804858a:	89 e5                	mov    ebp,esp
 804858c:	83 ec 18             	sub    esp,0x18
 804858f:	8b 45 0c             	mov    eax,DWORD PTR [ebp+0xc]
 8048592:	89 44 24 08          	mov    DWORD PTR [esp+0x8],eax
 8048596:	8b 45 08             	mov    eax,DWORD PTR [ebp+0x8]
 8048599:	89 44 24 04          	mov    DWORD PTR [esp+0x4],eax
 804859d:	c7 04 24 01 00 00 00 	mov    DWORD PTR [esp],0x1
 80485a4:	e8 82 ff ff ff       	call   804852b <vhprintf>
 80485a9:	89 ec                	mov    esp,ebp
 80485ab:	5d                   	pop    ebp
 80485ac:	c3                   	ret

080485ad <hprintf>:
 80485ad:	55                   	push   ebp
 80485ae:	89 e5                	mov    ebp,esp
 80485b0:	83 ec 18             	sub    esp,0x18
 80485b3:	8d 45 10             	lea    eax,[ebp+0x10]
 80485b6:	89 44 24 08          	mov    DWORD PTR [esp+0x8],eax
 80485ba:	8b 45 0c             	mov    eax,DWORD PTR [ebp+0xc]
 80485bd:	89 44 24 04          	mov    DWORD PTR [esp+0x4],eax
 80485c1:	8b 45 08             	mov    eax,DWORD PTR [ebp+0x8]
 80485c4:	89 04 24             	mov    DWORD PTR [esp],eax
 80485c7:	e8 5f ff ff ff       	call   804852b <vhprintf>
 80485cc:	89 ec                	mov    esp,ebp
 80485ce:	5d                   	pop    ebp
 80485cf:	c3                   	ret

080485d0 <debug_backtrace>:
 80485d0:	55                   	push   ebp
 80485d1:	89 e5                	mov    ebp,esp
 80485d3:	57                   	push   edi
 80485d4:	56                   	push   esi
 80485d5:	53                   	push   ebx
 80485d6:	83 ec 1c             	sub    esp,0x1c
 80485d9:	e8 bb 1c 00 00       	call   804a299 <__x86.get_pc_thunk.bx>
 80485de:	81 c3 22 2a 00 00    	add    ebx,0x2a22
 80485e4:	8b 45 04             	mov    eax,DWORD PTR [ebp+0x4]
 80485e7:	89 44 24 04          	mov    DWORD PTR [esp+0x4],eax
 80485eb:	8d 83 59 fb ff ff    	lea    eax,[ebx-0x4a7]
 80485f1:	89 04 24             	mov    DWORD PTR [esp],eax
 80485f4:	e8 5b 04 00 00       	call   8048a54 <printf>
 80485f9:	8b 75 00             	mov    esi,DWORD PTR [ebp+0x0]
 80485fc:	8d bb 64 fb ff ff    	lea    edi,[ebx-0x49c]
 8048602:	81 fe ff 0f 00 00    	cmp    esi,0xfff
 8048608:	76 1e                	jbe    8048628 <debug_backtrace+0x58>
 804860a:	83 3e 00             	cmp    DWORD PTR [esi],0x0
 804860d:	74 19                	je     8048628 <debug_backtrace+0x58>
 804860f:	8b 46 04             	mov    eax,DWORD PTR [esi+0x4]
 8048612:	89 44 24 04          	mov    DWORD PTR [esp+0x4],eax
 8048616:	89 3c 24             	mov    DWORD PTR [esp],edi
 8048619:	e8 36 04 00 00       	call   8048a54 <printf>
 804861e:	8b 36                	mov    esi,DWORD PTR [esi]
 8048620:	81 fe ff 0f 00 00    	cmp    esi,0xfff
 8048626:	77 e2                	ja     804860a <debug_backtrace+0x3a>
 8048628:	8d 83 68 fb ff ff    	lea    eax,[ebx-0x498]
 804862e:	89 04 24             	mov    DWORD PTR [esp],eax
 8048631:	e8 1e 04 00 00       	call   8048a54 <printf>
 8048636:	80 bb 80 00 30 00 00 	cmp    BYTE PTR [ebx+0x300080],0x0
 804863d:	74 08                	je     8048647 <debug_backtrace+0x77>
 804863f:	83 c4 1c             	add    esp,0x1c
 8048642:	5b                   	pop    ebx
 8048643:	5e                   	pop    esi
 8048644:	5f                   	pop    edi
 8048645:	5d                   	pop    ebp
 8048646:	c3                   	ret
 8048647:	c6 83 80 00 30 00 01 	mov    BYTE PTR [ebx+0x300080],0x1
 804864e:	8d 83 a8 fa ff ff    	lea    eax,[ebx-0x558]
 8048654:	89 04 24             	mov    DWORD PTR [esp],eax
 8048657:	e8 f8 03 00 00       	call   8048a54 <printf>
 804865c:	eb e1                	jmp    804863f <debug_backtrace+0x6f>
 804865e:	90                   	nop
 804865f:	90                   	nop

08048660 <vsnprintf_helper>:
 8048660:	55                   	push   ebp
 8048661:	89 e5                	mov    ebp,esp
 8048663:	53                   	push   ebx
 8048664:	8b 45 0c             	mov    eax,DWORD PTR [ebp+0xc]
 8048667:	0f b6 5d 08          	movzx  ebx,BYTE PTR [ebp+0x8]
 804866b:	8b 50 04             	mov    edx,DWORD PTR [eax+0x4]
 804866e:	8d 4a 01             	lea    ecx,[edx+0x1]
 8048671:	89 48 04             	mov    DWORD PTR [eax+0x4],ecx
 8048674:	3b 50 08             	cmp    edx,DWORD PTR [eax+0x8]
 8048677:	7d 09                	jge    8048682 <vsnprintf_helper+0x22>
 8048679:	8b 10                	mov    edx,DWORD PTR [eax]
 804867b:	8d 4a 01             	lea    ecx,[edx+0x1]
 804867e:	89 08                	mov    DWORD PTR [eax],ecx
 8048680:	88 1a                	mov    BYTE PTR [edx],bl
 8048682:	5b                   	pop    ebx
 8048683:	5d                   	pop    ebp
 8048684:	c3                   	ret

08048685 <output_dup>:
 8048685:	85 d2                	test   edx,edx
 8048687:	74 2b                	je     80486b4 <output_dup+0x2f>
 8048689:	55                   	push   ebp
 804868a:	89 e5                	mov    ebp,esp
 804868c:	57                   	push   edi
 804868d:	56                   	push   esi
 804868e:	53                   	push   ebx
 804868f:	83 ec 1c             	sub    esp,0x1c
 8048692:	89 cf                	mov    edi,ecx
 8048694:	8d 5a ff             	lea    ebx,[edx-0x1]
 8048697:	0f be f0             	movsx  esi,al
 804869a:	8b 45 08             	mov    eax,DWORD PTR [ebp+0x8]
 804869d:	89 44 24 04          	mov    DWORD PTR [esp+0x4],eax
 80486a1:	89 34 24             	mov    DWORD PTR [esp],esi
 80486a4:	ff d7                	call   edi
 80486a6:	4b                   	dec    ebx
 80486a7:	83 fb ff             	cmp    ebx,0xffffffff
 80486aa:	75 ee                	jne    804869a <output_dup+0x15>
 80486ac:	83 c4 1c             	add    esp,0x1c
 80486af:	5b                   	pop    ebx
 80486b0:	5e                   	pop    esi
 80486b1:	5f                   	pop    edi
 80486b2:	5d                   	pop    ebp
 80486b3:	c3                   	ret
 80486b4:	c3                   	ret

080486b5 <format_integer>:
 80486b5:	55                   	push   ebp
 80486b6:	89 e5                	mov    ebp,esp
 80486b8:	57                   	push   edi
 80486b9:	56                   	push   esi
 80486ba:	53                   	push   ebx
 80486bb:	81 ec 8c 00 00 00    	sub    esp,0x8c
 80486c1:	e8 d7 1b 00 00       	call   804a29d <__x86.get_pc_thunk.di>
 80486c6:	81 c7 3a 29 00 00    	add    edi,0x293a
 80486cc:	89 7d 8c             	mov    DWORD PTR [ebp-0x74],edi
 80486cf:	89 45 a4             	mov    DWORD PTR [ebp-0x5c],eax
 80486d2:	89 55 a0             	mov    DWORD PTR [ebp-0x60],edx
 80486d5:	0f b6 45 08          	movzx  eax,BYTE PTR [ebp+0x8]
 80486d9:	c7 45 84 00 00 00 00 	mov    DWORD PTR [ebp-0x7c],0x0
 80486e0:	84 c9                	test   cl,cl
 80486e2:	74 17                	je     80486fb <format_integer+0x46>
 80486e4:	8b 7d 10             	mov    edi,DWORD PTR [ebp+0x10]
 80486e7:	8b 17                	mov    edx,DWORD PTR [edi]
 80486e9:	f6 c2 02             	test   dl,0x2
 80486ec:	74 79                	je     8048767 <format_integer+0xb2>
 80486ee:	3c 01                	cmp    al,0x1
 80486f0:	19 c0                	sbb    eax,eax
 80486f2:	83 e0 fe             	and    eax,0xfffffffe
 80486f5:	83 c0 2d             	add    eax,0x2d
 80486f8:	89 45 84             	mov    DWORD PTR [ebp-0x7c],eax
 80486fb:	8b 45 10             	mov    eax,DWORD PTR [ebp+0x10]
 80486fe:	8b 38                	mov    edi,DWORD PTR [eax]
 8048700:	89 bd 7c ff ff ff    	mov    DWORD PTR [ebp-0x84],edi
 8048706:	83 e7 08             	and    edi,0x8
 8048709:	89 bd 78 ff ff ff    	mov    DWORD PTR [ebp-0x88],edi
 804870f:	8b 45 a4             	mov    eax,DWORD PTR [ebp-0x5c]
 8048712:	8b 55 a0             	mov    edx,DWORD PTR [ebp-0x60]
 8048715:	09 d0                	or     eax,edx
 8048717:	74 04                	je     804871d <format_integer+0x68>
 8048719:	85 ff                	test   edi,edi
 804871b:	75 6d                	jne    804878a <format_integer+0xd5>
 804871d:	8b 45 a4             	mov    eax,DWORD PTR [ebp-0x5c]
 8048720:	8b 55 a0             	mov    edx,DWORD PTR [ebp-0x60]
 8048723:	09 d0                	or     eax,edx
 8048725:	0f 84 6f 02 00 00    	je     804899a <format_integer+0x2e5>
 804872b:	c7 45 80 00 00 00 00 	mov    DWORD PTR [ebp-0x80],0x0
 8048732:	8b 45 0c             	mov    eax,DWORD PTR [ebp+0xc]
 8048735:	8b 40 04             	mov    eax,DWORD PTR [eax+0x4]
 8048738:	89 45 88             	mov    DWORD PTR [ebp-0x78],eax
 804873b:	8b 45 0c             	mov    eax,DWORD PTR [ebp+0xc]
 804873e:	8b 00                	mov    eax,DWORD PTR [eax]
 8048740:	89 c6                	mov    esi,eax
 8048742:	89 c7                	mov    edi,eax
 8048744:	c1 ff 1f             	sar    edi,0x1f
 8048747:	c7 45 90 00 00 00 00 	mov    DWORD PTR [ebp-0x70],0x0
 804874e:	8d 5d a8             	lea    ebx,[ebp-0x58]
 8048751:	8b 85 7c ff ff ff    	mov    eax,DWORD PTR [ebp-0x84]
 8048757:	c1 e8 05             	shr    eax,0x5
 804875a:	24 01                	and    al,0x1
 804875c:	88 45 96             	mov    BYTE PTR [ebp-0x6a],al
 804875f:	89 5d 98             	mov    DWORD PTR [ebp-0x68],ebx
 8048762:	e9 96 00 00 00       	jmp    80487fd <format_integer+0x148>
 8048767:	f6 c2 04             	test   dl,0x4
 804876a:	74 0f                	je     804877b <format_integer+0xc6>
 804876c:	3c 01                	cmp    al,0x1
 804876e:	19 c0                	sbb    eax,eax
 8048770:	83 e0 f3             	and    eax,0xfffffff3
 8048773:	83 c0 2d             	add    eax,0x2d
 8048776:	89 45 84             	mov    DWORD PTR [ebp-0x7c],eax
 8048779:	eb 80                	jmp    80486fb <format_integer+0x46>
 804877b:	f6 d8                	neg    al
 804877d:	19 c0                	sbb    eax,eax
 804877f:	83 e0 2d             	and    eax,0x2d
 8048782:	89 45 84             	mov    DWORD PTR [ebp-0x7c],eax
 8048785:	e9 71 ff ff ff       	jmp    80486fb <format_integer+0x46>
 804878a:	8b 45 0c             	mov    eax,DWORD PTR [ebp+0xc]
 804878d:	8b 40 08             	mov    eax,DWORD PTR [eax+0x8]
 8048790:	89 45 80             	mov    DWORD PTR [ebp-0x80],eax
 8048793:	eb 9d                	jmp    8048732 <format_integer+0x7d>
 8048795:	8b 45 98             	mov    eax,DWORD PTR [ebp-0x68]
 8048798:	89 45 9c             	mov    DWORD PTR [ebp-0x64],eax
 804879b:	8b 4d 9c             	mov    ecx,DWORD PTR [ebp-0x64]
 804879e:	8d 41 01             	lea    eax,[ecx+0x1]
 80487a1:	89 45 98             	mov    DWORD PTR [ebp-0x68],eax
 80487a4:	89 74 24 08          	mov    DWORD PTR [esp+0x8],esi
 80487a8:	89 7c 24 0c          	mov    DWORD PTR [esp+0xc],edi
 80487ac:	8b 45 a4             	mov    eax,DWORD PTR [ebp-0x5c]
 80487af:	89 04 24             	mov    DWORD PTR [esp],eax
 80487b2:	8b 55 a0             	mov    edx,DWORD PTR [ebp-0x60]
 80487b5:	89 54 24 04          	mov    DWORD PTR [esp+0x4],edx
 80487b9:	8b 5d 8c             	mov    ebx,DWORD PTR [ebp-0x74]
 80487bc:	e8 30 1a 00 00       	call   804a1f1 <__umoddi3>
 80487c1:	8b 55 88             	mov    edx,DWORD PTR [ebp-0x78]
 80487c4:	0f b6 04 02          	movzx  eax,BYTE PTR [edx+eax*1]
 80487c8:	88 45 97             	mov    BYTE PTR [ebp-0x69],al
 80487cb:	8b 4d 9c             	mov    ecx,DWORD PTR [ebp-0x64]
 80487ce:	88 01                	mov    BYTE PTR [ecx],al
 80487d0:	89 74 24 08          	mov    DWORD PTR [esp+0x8],esi
 80487d4:	89 7c 24 0c          	mov    DWORD PTR [esp+0xc],edi
 80487d8:	8b 45 a4             	mov    eax,DWORD PTR [ebp-0x5c]
 80487db:	89 04 24             	mov    DWORD PTR [esp],eax
 80487de:	8b 55 a0             	mov    edx,DWORD PTR [ebp-0x60]
 80487e1:	89 54 24 04          	mov    DWORD PTR [esp+0x4],edx
 80487e5:	e8 e5 19 00 00       	call   804a1cf <__udivdi3>
 80487ea:	ff 45 90             	inc    DWORD PTR [ebp-0x70]
 80487ed:	39 75 a4             	cmp    DWORD PTR [ebp-0x5c],esi
 80487f0:	8b 4d a0             	mov    ecx,DWORD PTR [ebp-0x60]
 80487f3:	19 f9                	sbb    ecx,edi
 80487f5:	72 32                	jb     8048829 <format_integer+0x174>
 80487f7:	89 45 a4             	mov    DWORD PTR [ebp-0x5c],eax
 80487fa:	89 55 a0             	mov    DWORD PTR [ebp-0x60],edx
 80487fd:	80 7d 96 00          	cmp    BYTE PTR [ebp-0x6a],0x0
 8048801:	74 92                	je     8048795 <format_integer+0xe0>
 8048803:	8b 45 90             	mov    eax,DWORD PTR [ebp-0x70]
 8048806:	85 c0                	test   eax,eax
 8048808:	7e 8b                	jle    8048795 <format_integer+0xe0>
 804880a:	8b 4d 0c             	mov    ecx,DWORD PTR [ebp+0xc]
 804880d:	99                   	cdq
 804880e:	f7 79 0c             	idiv   DWORD PTR [ecx+0xc]
 8048811:	8b 45 98             	mov    eax,DWORD PTR [ebp-0x68]
 8048814:	89 45 9c             	mov    DWORD PTR [ebp-0x64],eax
 8048817:	85 d2                	test   edx,edx
 8048819:	75 80                	jne    804879b <format_integer+0xe6>
 804881b:	8d 50 01             	lea    edx,[eax+0x1]
 804881e:	89 55 9c             	mov    DWORD PTR [ebp-0x64],edx
 8048821:	c6 00 2c             	mov    BYTE PTR [eax],0x2c
 8048824:	e9 72 ff ff ff       	jmp    804879b <format_integer+0xe6>
 8048829:	8b 5d 98             	mov    ebx,DWORD PTR [ebp-0x68]
 804882c:	8b 45 10             	mov    eax,DWORD PTR [ebp+0x10]
 804882f:	8b 50 08             	mov    edx,DWORD PTR [eax+0x8]
 8048832:	85 d2                	test   edx,edx
 8048834:	b8 01 00 00 00       	mov    eax,0x1
 8048839:	0f 48 d0             	cmovs  edx,eax
 804883c:	8d 4d a8             	lea    ecx,[ebp-0x58]
 804883f:	89 d8                	mov    eax,ebx
 8048841:	29 c8                	sub    eax,ecx
 8048843:	39 c2                	cmp    edx,eax
 8048845:	7e 1e                	jle    8048865 <format_integer+0x1b0>
 8048847:	8d 45 e7             	lea    eax,[ebp-0x19]
 804884a:	39 c3                	cmp    ebx,eax
 804884c:	73 17                	jae    8048865 <format_integer+0x1b0>
 804884e:	8d 4d a8             	lea    ecx,[ebp-0x58]
 8048851:	8d 7d e7             	lea    edi,[ebp-0x19]
 8048854:	43                   	inc    ebx
 8048855:	c6 43 ff 30          	mov    BYTE PTR [ebx-0x1],0x30
 8048859:	89 d8                	mov    eax,ebx
 804885b:	29 c8                	sub    eax,ecx
 804885d:	39 d0                	cmp    eax,edx
 804885f:	7d 04                	jge    8048865 <format_integer+0x1b0>
 8048861:	39 fb                	cmp    ebx,edi
 8048863:	72 ef                	jb     8048854 <format_integer+0x19f>
 8048865:	83 bd 78 ff ff ff 00 	cmp    DWORD PTR [ebp-0x88],0x0
 804886c:	74 0c                	je     804887a <format_integer+0x1c5>
 804886e:	8b 45 0c             	mov    eax,DWORD PTR [ebp+0xc]
 8048871:	83 38 08             	cmp    DWORD PTR [eax],0x8
 8048874:	0f 84 b9 00 00 00    	je     8048933 <format_integer+0x27e>
 804887a:	8d 7d a8             	lea    edi,[ebp-0x58]
 804887d:	29 df                	sub    edi,ebx
 804887f:	8b 45 10             	mov    eax,DWORD PTR [ebp+0x10]
 8048882:	03 78 04             	add    edi,DWORD PTR [eax+0x4]
 8048885:	83 7d 80 00          	cmp    DWORD PTR [ebp-0x80],0x0
 8048889:	0f 95 c0             	setne  al
 804888c:	0f b6 c0             	movzx  eax,al
 804888f:	01 c0                	add    eax,eax
 8048891:	29 c7                	sub    edi,eax
 8048893:	83 7d 84 00          	cmp    DWORD PTR [ebp-0x7c],0x0
 8048897:	0f 95 c0             	setne  al
 804889a:	0f b6 c0             	movzx  eax,al
 804889d:	29 c7                	sub    edi,eax
 804889f:	89 fe                	mov    esi,edi
 80488a1:	b8 00 00 00 00       	mov    eax,0x0
 80488a6:	0f 48 f0             	cmovs  esi,eax
 80488a9:	f6 85 7c ff ff ff 11 	test   BYTE PTR [ebp-0x84],0x11
 80488b0:	0f 84 99 00 00 00    	je     804894f <format_integer+0x29a>
 80488b6:	8b 45 84             	mov    eax,DWORD PTR [ebp-0x7c]
 80488b9:	85 c0                	test   eax,eax
 80488bb:	74 0d                	je     80488ca <format_integer+0x215>
 80488bd:	8b 7d 18             	mov    edi,DWORD PTR [ebp+0x18]
 80488c0:	89 7c 24 04          	mov    DWORD PTR [esp+0x4],edi
 80488c4:	89 04 24             	mov    DWORD PTR [esp],eax
 80488c7:	ff 55 14             	call   DWORD PTR [ebp+0x14]
 80488ca:	83 7d 80 00          	cmp    DWORD PTR [ebp-0x80],0x0
 80488ce:	74 22                	je     80488f2 <format_integer+0x23d>
 80488d0:	8b 7d 18             	mov    edi,DWORD PTR [ebp+0x18]
 80488d3:	89 7c 24 04          	mov    DWORD PTR [esp+0x4],edi
 80488d7:	c7 04 24 30 00 00 00 	mov    DWORD PTR [esp],0x30
 80488de:	ff 55 14             	call   DWORD PTR [ebp+0x14]
 80488e1:	8b 7d 18             	mov    edi,DWORD PTR [ebp+0x18]
 80488e4:	89 7c 24 04          	mov    DWORD PTR [esp+0x4],edi
 80488e8:	0f be 45 80          	movsx  eax,BYTE PTR [ebp-0x80]
 80488ec:	89 04 24             	mov    DWORD PTR [esp],eax
 80488ef:	ff 55 14             	call   DWORD PTR [ebp+0x14]
 80488f2:	8b 45 10             	mov    eax,DWORD PTR [ebp+0x10]
 80488f5:	f6 00 10             	test   BYTE PTR [eax],0x10
 80488f8:	75 6f                	jne    8048969 <format_integer+0x2b4>
 80488fa:	8d 45 a8             	lea    eax,[ebp-0x58]
 80488fd:	89 c7                	mov    edi,eax
 80488ff:	39 d8                	cmp    eax,ebx
 8048901:	73 1d                	jae    8048920 <format_integer+0x26b>
 8048903:	89 75 a4             	mov    DWORD PTR [ebp-0x5c],esi
 8048906:	8b 75 14             	mov    esi,DWORD PTR [ebp+0x14]
 8048909:	4b                   	dec    ebx
 804890a:	8b 45 18             	mov    eax,DWORD PTR [ebp+0x18]
 804890d:	89 44 24 04          	mov    DWORD PTR [esp+0x4],eax
 8048911:	0f be 03             	movsx  eax,BYTE PTR [ebx]
 8048914:	89 04 24             	mov    DWORD PTR [esp],eax
 8048917:	ff d6                	call   esi
 8048919:	39 fb                	cmp    ebx,edi
 804891b:	75 ec                	jne    8048909 <format_integer+0x254>
 804891d:	8b 75 a4             	mov    esi,DWORD PTR [ebp-0x5c]
 8048920:	8b 45 10             	mov    eax,DWORD PTR [ebp+0x10]
 8048923:	f6 00 01             	test   BYTE PTR [eax],0x1
 8048926:	75 5b                	jne    8048983 <format_integer+0x2ce>
 8048928:	81 c4 8c 00 00 00    	add    esp,0x8c
 804892e:	5b                   	pop    ebx
 804892f:	5e                   	pop    esi
 8048930:	5f                   	pop    edi
 8048931:	5d                   	pop    ebp
 8048932:	c3                   	ret
 8048933:	8d 45 a8             	lea    eax,[ebp-0x58]
 8048936:	39 c3                	cmp    ebx,eax
 8048938:	74 0a                	je     8048944 <format_integer+0x28f>
 804893a:	80 7b ff 30          	cmp    BYTE PTR [ebx-0x1],0x30
 804893e:	0f 84 36 ff ff ff    	je     804887a <format_integer+0x1c5>
 8048944:	c6 03 30             	mov    BYTE PTR [ebx],0x30
 8048947:	8d 5b 01             	lea    ebx,[ebx+0x1]
 804894a:	e9 2b ff ff ff       	jmp    804887a <format_integer+0x1c5>
 804894f:	8b 45 18             	mov    eax,DWORD PTR [ebp+0x18]
 8048952:	89 04 24             	mov    DWORD PTR [esp],eax
 8048955:	8b 4d 14             	mov    ecx,DWORD PTR [ebp+0x14]
 8048958:	89 f2                	mov    edx,esi
 804895a:	b8 20 00 00 00       	mov    eax,0x20
 804895f:	e8 21 fd ff ff       	call   8048685 <output_dup>
 8048964:	e9 4d ff ff ff       	jmp    80488b6 <format_integer+0x201>
 8048969:	8b 45 18             	mov    eax,DWORD PTR [ebp+0x18]
 804896c:	89 04 24             	mov    DWORD PTR [esp],eax
 804896f:	8b 4d 14             	mov    ecx,DWORD PTR [ebp+0x14]
 8048972:	89 f2                	mov    edx,esi
 8048974:	b8 30 00 00 00       	mov    eax,0x30
 8048979:	e8 07 fd ff ff       	call   8048685 <output_dup>
 804897e:	e9 77 ff ff ff       	jmp    80488fa <format_integer+0x245>
 8048983:	8b 45 18             	mov    eax,DWORD PTR [ebp+0x18]
 8048986:	89 04 24             	mov    DWORD PTR [esp],eax
 8048989:	8b 4d 14             	mov    ecx,DWORD PTR [ebp+0x14]
 804898c:	89 f2                	mov    edx,esi
 804898e:	b8 20 00 00 00       	mov    eax,0x20
 8048993:	e8 ed fc ff ff       	call   8048685 <output_dup>
 8048998:	eb 8e                	jmp    8048928 <format_integer+0x273>
 804899a:	8b 45 10             	mov    eax,DWORD PTR [ebp+0x10]
 804899d:	8b 50 08             	mov    edx,DWORD PTR [eax+0x8]
 80489a0:	85 d2                	test   edx,edx
 80489a2:	78 0f                	js     80489b3 <format_integer+0x2fe>
 80489a4:	8d 5d a8             	lea    ebx,[ebp-0x58]
 80489a7:	c7 45 80 00 00 00 00 	mov    DWORD PTR [ebp-0x80],0x0
 80489ae:	e9 89 fe ff ff       	jmp    804883c <format_integer+0x187>
 80489b3:	ba 01 00 00 00       	mov    edx,0x1
 80489b8:	c7 45 80 00 00 00 00 	mov    DWORD PTR [ebp-0x80],0x0
 80489bf:	8d 5d a8             	lea    ebx,[ebp-0x58]
 80489c2:	e9 87 fe ff ff       	jmp    804884e <format_integer+0x199>

080489c7 <format_string>:
 80489c7:	55                   	push   ebp
 80489c8:	89 e5                	mov    ebp,esp
 80489ca:	57                   	push   edi
 80489cb:	56                   	push   esi
 80489cc:	53                   	push   ebx
 80489cd:	83 ec 2c             	sub    esp,0x2c
 80489d0:	89 c7                	mov    edi,eax
 80489d2:	89 d6                	mov    esi,edx
 80489d4:	89 4d e4             	mov    DWORD PTR [ebp-0x1c],ecx
 80489d7:	8b 51 04             	mov    edx,DWORD PTR [ecx+0x4]
 80489da:	39 f2                	cmp    edx,esi
 80489dc:	7e 3b                	jle    8048a19 <format_string+0x52>
 80489de:	f6 01 01             	test   BYTE PTR [ecx],0x1
 80489e1:	74 1b                	je     80489fe <format_string+0x37>
 80489e3:	85 f6                	test   esi,esi
 80489e5:	7f 3b                	jg     8048a22 <format_string+0x5b>
 80489e7:	29 f2                	sub    edx,esi
 80489e9:	8b 45 0c             	mov    eax,DWORD PTR [ebp+0xc]
 80489ec:	89 04 24             	mov    DWORD PTR [esp],eax
 80489ef:	8b 4d 08             	mov    ecx,DWORD PTR [ebp+0x8]
 80489f2:	b8 20 00 00 00       	mov    eax,0x20
 80489f7:	e8 89 fc ff ff       	call   8048685 <output_dup>
 80489fc:	eb 4e                	jmp    8048a4c <format_string+0x85>
 80489fe:	29 f2                	sub    edx,esi
 8048a00:	8b 45 0c             	mov    eax,DWORD PTR [ebp+0xc]
 8048a03:	89 04 24             	mov    DWORD PTR [esp],eax
 8048a06:	8b 4d 08             	mov    ecx,DWORD PTR [ebp+0x8]
 8048a09:	b8 20 00 00 00       	mov    eax,0x20
 8048a0e:	e8 72 fc ff ff       	call   8048685 <output_dup>
 8048a13:	85 f6                	test   esi,esi
 8048a15:	7f 0b                	jg     8048a22 <format_string+0x5b>
 8048a17:	eb 24                	jmp    8048a3d <format_string+0x76>
 8048a19:	85 f6                	test   esi,esi
 8048a1b:	2e 8d 74 26 00       	lea    esi,cs:[esi+eiz*1+0x0]
 8048a20:	7e 2a                	jle    8048a4c <format_string+0x85>
 8048a22:	bb 00 00 00 00       	mov    ebx,0x0
 8048a27:	8b 45 0c             	mov    eax,DWORD PTR [ebp+0xc]
 8048a2a:	89 44 24 04          	mov    DWORD PTR [esp+0x4],eax
 8048a2e:	0f be 04 1f          	movsx  eax,BYTE PTR [edi+ebx*1]
 8048a32:	89 04 24             	mov    DWORD PTR [esp],eax
 8048a35:	ff 55 08             	call   DWORD PTR [ebp+0x8]
 8048a38:	43                   	inc    ebx
 8048a39:	39 de                	cmp    esi,ebx
 8048a3b:	7f ea                	jg     8048a27 <format_string+0x60>
 8048a3d:	8b 45 e4             	mov    eax,DWORD PTR [ebp-0x1c]
 8048a40:	8b 50 04             	mov    edx,DWORD PTR [eax+0x4]
 8048a43:	39 f2                	cmp    edx,esi
 8048a45:	7e 05                	jle    8048a4c <format_string+0x85>
 8048a47:	f6 00 01             	test   BYTE PTR [eax],0x1
 8048a4a:	75 9b                	jne    80489e7 <format_string+0x20>
 8048a4c:	83 c4 2c             	add    esp,0x2c
 8048a4f:	5b                   	pop    ebx
 8048a50:	5e                   	pop    esi
 8048a51:	5f                   	pop    edi
 8048a52:	5d                   	pop    ebp
 8048a53:	c3                   	ret

08048a54 <printf>:
 8048a54:	55                   	push   ebp
 8048a55:	89 e5                	mov    ebp,esp
 8048a57:	83 ec 18             	sub    esp,0x18
 8048a5a:	89 5d fc             	mov    DWORD PTR [ebp-0x4],ebx
 8048a5d:	e8 37 18 00 00       	call   804a299 <__x86.get_pc_thunk.bx>
 8048a62:	81 c3 9e 25 00 00    	add    ebx,0x259e
 8048a68:	8d 45 0c             	lea    eax,[ebp+0xc]
 8048a6b:	89 44 24 04          	mov    DWORD PTR [esp+0x4],eax
 8048a6f:	8b 45 08             	mov    eax,DWORD PTR [ebp+0x8]
 8048a72:	89 04 24             	mov    DWORD PTR [esp],eax
 8048a75:	e8 0f fb ff ff       	call   8048589 <vprintf>
 8048a7a:	8b 5d fc             	mov    ebx,DWORD PTR [ebp-0x4]
 8048a7d:	89 ec                	mov    esp,ebp
 8048a7f:	5d                   	pop    ebp
 8048a80:	c3                   	ret

08048a81 <__printf>:
 8048a81:	55                   	push   ebp
 8048a82:	89 e5                	mov    ebp,esp
 8048a84:	83 ec 18             	sub    esp,0x18
 8048a87:	8d 45 14             	lea    eax,[ebp+0x14]
 8048a8a:	8b 55 10             	mov    edx,DWORD PTR [ebp+0x10]
 8048a8d:	89 54 24 0c          	mov    DWORD PTR [esp+0xc],edx
 8048a91:	8b 55 0c             	mov    edx,DWORD PTR [ebp+0xc]
 8048a94:	89 54 24 08          	mov    DWORD PTR [esp+0x8],edx
 8048a98:	89 44 24 04          	mov    DWORD PTR [esp+0x4],eax
 8048a9c:	8b 45 08             	mov    eax,DWORD PTR [ebp+0x8]
 8048a9f:	89 04 24             	mov    DWORD PTR [esp],eax
 8048aa2:	e8 04 00 00 00       	call   8048aab <__vprintf>
 8048aa7:	89 ec                	mov    esp,ebp
 8048aa9:	5d                   	pop    ebp
 8048aaa:	c3                   	ret

08048aab <__vprintf>:
 8048aab:	55                   	push   ebp
 8048aac:	89 e5                	mov    ebp,esp
 8048aae:	57                   	push   edi
 8048aaf:	56                   	push   esi
 8048ab0:	53                   	push   ebx
 8048ab1:	83 ec 5c             	sub    esp,0x5c
 8048ab4:	e8 e4 17 00 00       	call   804a29d <__x86.get_pc_thunk.di>
 8048ab9:	81 c7 47 25 00 00    	add    edi,0x2547
 8048abf:	8b 5d 08             	mov    ebx,DWORD PTR [ebp+0x8]
 8048ac2:	0f b6 03             	movzx  eax,BYTE PTR [ebx]
 8048ac5:	84 c0                	test   al,al
 8048ac7:	75 25                	jne    8048aee <__vprintf+0x43>
 8048ac9:	83 c4 5c             	add    esp,0x5c
 8048acc:	5b                   	pop    ebx
 8048acd:	5e                   	pop    esi
 8048ace:	5f                   	pop    edi
 8048acf:	5d                   	pop    ebp
 8048ad0:	c3                   	ret
 8048ad1:	8b 75 14             	mov    esi,DWORD PTR [ebp+0x14]
 8048ad4:	89 74 24 04          	mov    DWORD PTR [esp+0x4],esi
 8048ad8:	0f be c0             	movsx  eax,al
 8048adb:	89 04 24             	mov    DWORD PTR [esp],eax
 8048ade:	ff 55 10             	call   DWORD PTR [ebp+0x10]
 8048ae1:	89 de                	mov    esi,ebx
 8048ae3:	8d 5e 01             	lea    ebx,[esi+0x1]
 8048ae6:	0f b6 46 01          	movzx  eax,BYTE PTR [esi+0x1]
 8048aea:	84 c0                	test   al,al
 8048aec:	74 db                	je     8048ac9 <__vprintf+0x1e>
 8048aee:	3c 25                	cmp    al,0x25
 8048af0:	75 df                	jne    8048ad1 <__vprintf+0x26>
 8048af2:	8d 73 01             	lea    esi,[ebx+0x1]
 8048af5:	80 7b 01 25          	cmp    BYTE PTR [ebx+0x1],0x25
 8048af9:	74 15                	je     8048b10 <__vprintf+0x65>
 8048afb:	c7 45 d8 00 00 00 00 	mov    DWORD PTR [ebp-0x28],0x0
 8048b02:	c6 45 c0 00          	mov    BYTE PTR [ebp-0x40],0x0
 8048b06:	bb 00 00 00 00       	mov    ebx,0x0
 8048b0b:	89 5d bc             	mov    DWORD PTR [ebp-0x44],ebx
 8048b0e:	eb 1d                	jmp    8048b2d <.L80+0xa>
 8048b10:	8b 45 14             	mov    eax,DWORD PTR [ebp+0x14]
 8048b13:	89 44 24 04          	mov    DWORD PTR [esp+0x4],eax
 8048b17:	c7 04 24 25 00 00 00 	mov    DWORD PTR [esp],0x25
 8048b1e:	ff 55 10             	call   DWORD PTR [ebp+0x10]
 8048b21:	eb c0                	jmp    8048ae3 <__vprintf+0x38>

08048b23 <.L80>:
 8048b23:	83 4d bc 01          	or     DWORD PTR [ebp-0x44],0x1
 8048b27:	89 ce                	mov    esi,ecx
 8048b29:	c6 45 c0 01          	mov    BYTE PTR [ebp-0x40],0x1
 8048b2d:	8d 4e 01             	lea    ecx,[esi+0x1]
 8048b30:	0f b6 41 ff          	movzx  eax,BYTE PTR [ecx-0x1]
 8048b34:	88 c2                	mov    dl,al
 8048b36:	80 ea 20             	sub    dl,0x20
 8048b39:	80 fa 10             	cmp    dl,0x10
 8048b3c:	77 2c                	ja     8048b6a <.L77>
 8048b3e:	0f b6 d2             	movzx  edx,dl
 8048b41:	89 fb                	mov    ebx,edi
 8048b43:	03 9c 97 c0 f2 ff ff 	add    ebx,DWORD PTR [edi+edx*4-0xd40]
 8048b4a:	ff e3                	jmp    ebx

08048b4c <.L81>:
 8048b4c:	83 4d bc 02          	or     DWORD PTR [ebp-0x44],0x2
 8048b50:	eb d5                	jmp    8048b27 <.L80+0x4>

08048b52 <.L84>:
 8048b52:	83 4d bc 04          	or     DWORD PTR [ebp-0x44],0x4
 8048b56:	eb cf                	jmp    8048b27 <.L80+0x4>

08048b58 <.L83>:
 8048b58:	83 4d bc 08          	or     DWORD PTR [ebp-0x44],0x8
 8048b5c:	eb c9                	jmp    8048b27 <.L80+0x4>

08048b5e <.L78>:
 8048b5e:	83 4d bc 10          	or     DWORD PTR [ebp-0x44],0x10
 8048b62:	eb c3                	jmp    8048b27 <.L80+0x4>

08048b64 <.L82>:
 8048b64:	83 4d bc 20          	or     DWORD PTR [ebp-0x44],0x20
 8048b68:	eb bd                	jmp    8048b27 <.L80+0x4>

08048b6a <.L77>:
 8048b6a:	8b 5d bc             	mov    ebx,DWORD PTR [ebp-0x44]
 8048b6d:	80 7d c0 00          	cmp    BYTE PTR [ebp-0x40],0x0
 8048b71:	74 0e                	je     8048b81 <.L77+0x17>
 8048b73:	89 5d d8             	mov    DWORD PTR [ebp-0x28],ebx
 8048b76:	f6 c3 01             	test   bl,0x1
 8048b79:	74 06                	je     8048b81 <.L77+0x17>
 8048b7b:	83 e3 ef             	and    ebx,0xffffffef
 8048b7e:	89 5d d8             	mov    DWORD PTR [ebp-0x28],ebx
 8048b81:	8b 55 d8             	mov    edx,DWORD PTR [ebp-0x28]
 8048b84:	f6 c2 02             	test   dl,0x2
 8048b87:	74 06                	je     8048b8f <.L77+0x25>
 8048b89:	83 e2 fb             	and    edx,0xfffffffb
 8048b8c:	89 55 d8             	mov    DWORD PTR [ebp-0x28],edx
 8048b8f:	c7 45 dc 00 00 00 00 	mov    DWORD PTR [ebp-0x24],0x0
 8048b96:	3c 2a                	cmp    al,0x2a
 8048b98:	74 44                	je     8048bde <.L77+0x74>
 8048b9a:	0f be c8             	movsx  ecx,al
 8048b9d:	83 e9 30             	sub    ecx,0x30
 8048ba0:	ba 00 00 00 00       	mov    edx,0x0
 8048ba5:	83 f9 09             	cmp    ecx,0x9
 8048ba8:	77 20                	ja     8048bca <.L77+0x60>
 8048baa:	8d 14 92             	lea    edx,[edx+edx*4]
 8048bad:	0f be c0             	movsx  eax,al
 8048bb0:	8d 54 50 d0          	lea    edx,[eax+edx*2-0x30]
 8048bb4:	46                   	inc    esi
 8048bb5:	0f b6 06             	movzx  eax,BYTE PTR [esi]
 8048bb8:	0f be c8             	movsx  ecx,al
 8048bbb:	83 e9 30             	sub    ecx,0x30
 8048bbe:	83 f9 09             	cmp    ecx,0x9
 8048bc1:	76 e7                	jbe    8048baa <.L77+0x40>
 8048bc3:	85 d2                	test   edx,edx
 8048bc5:	78 26                	js     8048bed <.L77+0x83>
 8048bc7:	89 55 dc             	mov    DWORD PTR [ebp-0x24],edx
 8048bca:	c7 45 e0 ff ff ff ff 	mov    DWORD PTR [ebp-0x20],0xffffffff
 8048bd1:	80 3e 2e             	cmp    BYTE PTR [esi],0x2e
 8048bd4:	74 22                	je     8048bf8 <.L77+0x8e>
 8048bd6:	8b 45 e0             	mov    eax,DWORD PTR [ebp-0x20]
 8048bd9:	89 45 c0             	mov    DWORD PTR [ebp-0x40],eax
 8048bdc:	eb 64                	jmp    8048c42 <.L77+0xd8>
 8048bde:	8b 45 0c             	mov    eax,DWORD PTR [ebp+0xc]
 8048be1:	8b 10                	mov    edx,DWORD PTR [eax]
 8048be3:	8d 40 04             	lea    eax,[eax+0x4]
 8048be6:	89 45 0c             	mov    DWORD PTR [ebp+0xc],eax
 8048be9:	89 ce                	mov    esi,ecx
 8048beb:	eb d6                	jmp    8048bc3 <.L77+0x59>
 8048bed:	f7 da                	neg    edx
 8048bef:	89 55 dc             	mov    DWORD PTR [ebp-0x24],edx
 8048bf2:	83 4d d8 01          	or     DWORD PTR [ebp-0x28],0x1
 8048bf6:	eb d2                	jmp    8048bca <.L77+0x60>
 8048bf8:	0f b6 46 01          	movzx  eax,BYTE PTR [esi+0x1]
 8048bfc:	3c 2a                	cmp    al,0x2a
 8048bfe:	74 6b                	je     8048c6b <.L77+0x101>
 8048c00:	46                   	inc    esi
 8048c01:	c7 45 e0 00 00 00 00 	mov    DWORD PTR [ebp-0x20],0x0
 8048c08:	0f be d0             	movsx  edx,al
 8048c0b:	83 ea 30             	sub    edx,0x30
 8048c0e:	83 fa 09             	cmp    edx,0x9
 8048c11:	77 25                	ja     8048c38 <.L77+0xce>
 8048c13:	b9 00 00 00 00       	mov    ecx,0x0
 8048c18:	8d 14 89             	lea    edx,[ecx+ecx*4]
 8048c1b:	0f be c0             	movsx  eax,al
 8048c1e:	8d 4c 50 d0          	lea    ecx,[eax+edx*2-0x30]
 8048c22:	46                   	inc    esi
 8048c23:	0f b6 06             	movzx  eax,BYTE PTR [esi]
 8048c26:	0f be d0             	movsx  edx,al
 8048c29:	83 ea 30             	sub    edx,0x30
 8048c2c:	83 fa 09             	cmp    edx,0x9
 8048c2f:	76 e7                	jbe    8048c18 <.L77+0xae>
 8048c31:	85 c9                	test   ecx,ecx
 8048c33:	78 46                	js     8048c7b <.L77+0x111>
 8048c35:	89 4d e0             	mov    DWORD PTR [ebp-0x20],ecx
 8048c38:	8b 45 e0             	mov    eax,DWORD PTR [ebp-0x20]
 8048c3b:	89 45 c0             	mov    DWORD PTR [ebp-0x40],eax
 8048c3e:	83 65 d8 ef          	and    DWORD PTR [ebp-0x28],0xffffffef
 8048c42:	c7 45 e4 03 00 00 00 	mov    DWORD PTR [ebp-0x1c],0x3
 8048c49:	8d 5e 01             	lea    ebx,[esi+0x1]
 8048c4c:	0f b6 06             	movzx  eax,BYTE PTR [esi]
 8048c4f:	88 c2                	mov    dl,al
 8048c51:	80 ea 68             	sub    dl,0x68
 8048c54:	80 fa 12             	cmp    dl,0x12
 8048c57:	0f 87 49 01 00 00    	ja     8048da6 <.L99>
 8048c5d:	0f b6 d2             	movzx  edx,dl
 8048c60:	89 f9                	mov    ecx,edi
 8048c62:	03 8c 97 04 f3 ff ff 	add    ecx,DWORD PTR [edi+edx*4-0xcfc]
 8048c69:	ff e1                	jmp    ecx
 8048c6b:	83 c6 02             	add    esi,0x2
 8048c6e:	8b 45 0c             	mov    eax,DWORD PTR [ebp+0xc]
 8048c71:	8b 08                	mov    ecx,DWORD PTR [eax]
 8048c73:	8d 40 04             	lea    eax,[eax+0x4]
 8048c76:	89 45 0c             	mov    DWORD PTR [ebp+0xc],eax
 8048c79:	eb b6                	jmp    8048c31 <.L77+0xc7>
 8048c7b:	c7 45 e0 ff ff ff ff 	mov    DWORD PTR [ebp-0x20],0xffffffff
 8048c82:	e9 4f ff ff ff       	jmp    8048bd6 <.L77+0x6c>

08048c87 <.L105>:
 8048c87:	0f b6 46 01          	movzx  eax,BYTE PTR [esi+0x1]
 8048c8b:	3c 68                	cmp    al,0x68
 8048c8d:	74 23                	je     8048cb2 <.L105+0x2b>
 8048c8f:	c7 45 e4 02 00 00 00 	mov    DWORD PTR [ebp-0x1c],0x2
 8048c96:	88 c2                	mov    dl,al
 8048c98:	80 ea 45             	sub    dl,0x45
 8048c9b:	80 fa 33             	cmp    dl,0x33
 8048c9e:	0f 87 b4 05 00 00    	ja     8049258 <.L107>
 8048ca4:	0f b6 d2             	movzx  edx,dl
 8048ca7:	89 fe                	mov    esi,edi
 8048ca9:	03 b4 97 50 f3 ff ff 	add    esi,DWORD PTR [edi+edx*4-0xcb0]
 8048cb0:	ff e6                	jmp    esi
 8048cb2:	8d 5e 02             	lea    ebx,[esi+0x2]
 8048cb5:	c7 45 e4 01 00 00 00 	mov    DWORD PTR [ebp-0x1c],0x1
 8048cbc:	0f b6 46 02          	movzx  eax,BYTE PTR [esi+0x2]
 8048cc0:	88 c2                	mov    dl,al
 8048cc2:	80 ea 45             	sub    dl,0x45
 8048cc5:	80 fa 33             	cmp    dl,0x33
 8048cc8:	0f 87 8a 05 00 00    	ja     8049258 <.L107>
 8048cce:	0f b6 d2             	movzx  edx,dl
 8048cd1:	89 fe                	mov    esi,edi
 8048cd3:	03 b4 97 20 f4 ff ff 	add    esi,DWORD PTR [edi+edx*4-0xbe0]
 8048cda:	ff e6                	jmp    esi

08048cdc <.L104>:
 8048cdc:	c7 45 e4 04 00 00 00 	mov    DWORD PTR [ebp-0x1c],0x4
 8048ce3:	0f b6 46 01          	movzx  eax,BYTE PTR [esi+0x1]
 8048ce7:	88 c2                	mov    dl,al
 8048ce9:	80 ea 45             	sub    dl,0x45
 8048cec:	80 fa 33             	cmp    dl,0x33
 8048cef:	0f 87 63 05 00 00    	ja     8049258 <.L107>
 8048cf5:	0f b6 d2             	movzx  edx,dl
 8048cf8:	89 fe                	mov    esi,edi
 8048cfa:	03 b4 97 f0 f4 ff ff 	add    esi,DWORD PTR [edi+edx*4-0xb10]
 8048d01:	ff e6                	jmp    esi

08048d03 <.L103>:
 8048d03:	0f b6 46 01          	movzx  eax,BYTE PTR [esi+0x1]
 8048d07:	3c 6c                	cmp    al,0x6c
 8048d09:	74 23                	je     8048d2e <.L103+0x2b>
 8048d0b:	c7 45 e4 05 00 00 00 	mov    DWORD PTR [ebp-0x1c],0x5
 8048d12:	88 c2                	mov    dl,al
 8048d14:	80 ea 45             	sub    dl,0x45
 8048d17:	80 fa 33             	cmp    dl,0x33
 8048d1a:	0f 87 38 05 00 00    	ja     8049258 <.L107>
 8048d20:	0f b6 d2             	movzx  edx,dl
 8048d23:	89 fe                	mov    esi,edi
 8048d25:	03 b4 97 c0 f5 ff ff 	add    esi,DWORD PTR [edi+edx*4-0xa40]
 8048d2c:	ff e6                	jmp    esi
 8048d2e:	8d 5e 02             	lea    ebx,[esi+0x2]
 8048d31:	c7 45 e4 06 00 00 00 	mov    DWORD PTR [ebp-0x1c],0x6
 8048d38:	0f b6 46 02          	movzx  eax,BYTE PTR [esi+0x2]
 8048d3c:	88 c2                	mov    dl,al
 8048d3e:	80 ea 45             	sub    dl,0x45
 8048d41:	80 fa 33             	cmp    dl,0x33
 8048d44:	0f 87 0e 05 00 00    	ja     8049258 <.L107>
 8048d4a:	0f b6 d2             	movzx  edx,dl
 8048d4d:	89 fe                	mov    esi,edi
 8048d4f:	03 b4 97 90 f6 ff ff 	add    esi,DWORD PTR [edi+edx*4-0x970]
 8048d56:	ff e6                	jmp    esi

08048d58 <.L102>:
 8048d58:	c7 45 e4 07 00 00 00 	mov    DWORD PTR [ebp-0x1c],0x7
 8048d5f:	0f b6 46 01          	movzx  eax,BYTE PTR [esi+0x1]
 8048d63:	88 c2                	mov    dl,al
 8048d65:	80 ea 45             	sub    dl,0x45
 8048d68:	80 fa 33             	cmp    dl,0x33
 8048d6b:	0f 87 e7 04 00 00    	ja     8049258 <.L107>
 8048d71:	0f b6 d2             	movzx  edx,dl
 8048d74:	89 fe                	mov    esi,edi
 8048d76:	03 b4 97 60 f7 ff ff 	add    esi,DWORD PTR [edi+edx*4-0x8a0]
 8048d7d:	ff e6                	jmp    esi

08048d7f <.L100>:
 8048d7f:	c7 45 e4 08 00 00 00 	mov    DWORD PTR [ebp-0x1c],0x8
 8048d86:	0f b6 46 01          	movzx  eax,BYTE PTR [esi+0x1]
 8048d8a:	88 c2                	mov    dl,al
 8048d8c:	80 ea 45             	sub    dl,0x45
 8048d8f:	80 fa 33             	cmp    dl,0x33
 8048d92:	0f 87 c0 04 00 00    	ja     8049258 <.L107>
 8048d98:	0f b6 d2             	movzx  edx,dl
 8048d9b:	89 fe                	mov    esi,edi
 8048d9d:	03 b4 97 30 f8 ff ff 	add    esi,DWORD PTR [edi+edx*4-0x7d0]
 8048da4:	ff e6                	jmp    esi

08048da6 <.L99>:
 8048da6:	88 c2                	mov    dl,al
 8048da8:	80 ea 45             	sub    dl,0x45
 8048dab:	80 fa 33             	cmp    dl,0x33
 8048dae:	0f 87 a2 04 00 00    	ja     8049256 <.L179>
 8048db4:	0f b6 d2             	movzx  edx,dl
 8048db7:	89 fb                	mov    ebx,edi
 8048db9:	03 9c 97 00 f9 ff ff 	add    ebx,DWORD PTR [edi+edx*4-0x700]
 8048dc0:	ff e3                	jmp    ebx

08048dc2 <.L152>:
 8048dc2:	89 de                	mov    esi,ebx
 8048dc4:	eb 06                	jmp    8048dcc <.L113>

08048dc6 <.L156>:
 8048dc6:	89 de                	mov    esi,ebx
 8048dc8:	eb 02                	jmp    8048dcc <.L113>

08048dca <.L160>:
 8048dca:	89 de                	mov    esi,ebx

08048dcc <.L113>:
 8048dcc:	83 7d e4 08          	cmp    DWORD PTR [ebp-0x1c],0x8
 8048dd0:	0f 87 6d 01 00 00    	ja     8048f43 <.L130>
 8048dd6:	8b 45 e4             	mov    eax,DWORD PTR [ebp-0x1c]
 8048dd9:	89 fb                	mov    ebx,edi
 8048ddb:	03 9c 87 d0 f9 ff ff 	add    ebx,DWORD PTR [edi+eax*4-0x630]
 8048de2:	ff e3                	jmp    ebx

08048de4 <.L164>:
 8048de4:	89 de                	mov    esi,ebx
 8048de6:	eb e4                	jmp    8048dcc <.L113>

08048de8 <.L168>:
 8048de8:	89 de                	mov    esi,ebx
 8048dea:	eb e0                	jmp    8048dcc <.L113>

08048dec <.L172>:
 8048dec:	89 de                	mov    esi,ebx
 8048dee:	66 90                	xchg   ax,ax
 8048df0:	eb da                	jmp    8048dcc <.L113>

08048df2 <.L176>:
 8048df2:	89 de                	mov    esi,ebx
 8048df4:	eb d6                	jmp    8048dcc <.L113>

08048df6 <.L139>:
 8048df6:	8b 45 0c             	mov    eax,DWORD PTR [ebp+0xc]
 8048df9:	0f be 00             	movsx  eax,BYTE PTR [eax]
 8048dfc:	89 c3                	mov    ebx,eax
 8048dfe:	c1 fb 1f             	sar    ebx,0x1f
 8048e01:	89 45 c0             	mov    DWORD PTR [ebp-0x40],eax
 8048e04:	89 5d c4             	mov    DWORD PTR [ebp-0x3c],ebx
 8048e07:	8b 45 0c             	mov    eax,DWORD PTR [ebp+0xc]
 8048e0a:	8d 40 04             	lea    eax,[eax+0x4]
 8048e0d:	89 45 0c             	mov    DWORD PTR [ebp+0xc],eax
 8048e10:	8b 4d c0             	mov    ecx,DWORD PTR [ebp-0x40]
 8048e13:	8b 5d c4             	mov    ebx,DWORD PTR [ebp-0x3c]
 8048e16:	89 c8                	mov    eax,ecx
 8048e18:	f7 d8                	neg    eax
 8048e1a:	89 da                	mov    edx,ebx
 8048e1c:	83 d2 00             	adc    edx,0x0
 8048e1f:	f7 da                	neg    edx
 8048e21:	0f 48 c1             	cmovs  eax,ecx
 8048e24:	0f 48 55 c4          	cmovs  edx,DWORD PTR [ebp-0x3c]
 8048e28:	8b 5d 14             	mov    ebx,DWORD PTR [ebp+0x14]
 8048e2b:	89 5c 24 10          	mov    DWORD PTR [esp+0x10],ebx
 8048e2f:	8b 5d 10             	mov    ebx,DWORD PTR [ebp+0x10]
 8048e32:	89 5c 24 0c          	mov    DWORD PTR [esp+0xc],ebx
 8048e36:	8d 4d d8             	lea    ecx,[ebp-0x28]
 8048e39:	89 4c 24 08          	mov    DWORD PTR [esp+0x8],ecx
 8048e3d:	8d 8f 54 00 00 00    	lea    ecx,[edi+0x54]
 8048e43:	89 4c 24 04          	mov    DWORD PTR [esp+0x4],ecx
 8048e47:	8b 4d c4             	mov    ecx,DWORD PTR [ebp-0x3c]
 8048e4a:	c1 e9 1f             	shr    ecx,0x1f
 8048e4d:	89 0c 24             	mov    DWORD PTR [esp],ecx
 8048e50:	b9 01 00 00 00       	mov    ecx,0x1
 8048e55:	e8 5b f8 ff ff       	call   80486b5 <format_integer>
 8048e5a:	e9 84 fc ff ff       	jmp    8048ae3 <__vprintf+0x38>

08048e5f <.L138>:
 8048e5f:	8b 45 0c             	mov    eax,DWORD PTR [ebp+0xc]
 8048e62:	0f bf 00             	movsx  eax,WORD PTR [eax]
 8048e65:	89 c3                	mov    ebx,eax
 8048e67:	c1 fb 1f             	sar    ebx,0x1f
 8048e6a:	89 45 c0             	mov    DWORD PTR [ebp-0x40],eax
 8048e6d:	89 5d c4             	mov    DWORD PTR [ebp-0x3c],ebx
 8048e70:	8b 45 0c             	mov    eax,DWORD PTR [ebp+0xc]
 8048e73:	8d 40 04             	lea    eax,[eax+0x4]
 8048e76:	89 45 0c             	mov    DWORD PTR [ebp+0xc],eax
 8048e79:	eb 95                	jmp    8048e10 <.L139+0x1a>

08048e7b <.L137>:
 8048e7b:	8b 45 0c             	mov    eax,DWORD PTR [ebp+0xc]
 8048e7e:	8b 00                	mov    eax,DWORD PTR [eax]
 8048e80:	89 c3                	mov    ebx,eax
 8048e82:	c1 fb 1f             	sar    ebx,0x1f
 8048e85:	89 45 c0             	mov    DWORD PTR [ebp-0x40],eax
 8048e88:	89 5d c4             	mov    DWORD PTR [ebp-0x3c],ebx
 8048e8b:	8b 45 0c             	mov    eax,DWORD PTR [ebp+0xc]
 8048e8e:	8d 40 04             	lea    eax,[eax+0x4]
 8048e91:	89 45 0c             	mov    DWORD PTR [ebp+0xc],eax
 8048e94:	e9 77 ff ff ff       	jmp    8048e10 <.L139+0x1a>

08048e99 <.L136>:
 8048e99:	8b 45 0c             	mov    eax,DWORD PTR [ebp+0xc]
 8048e9c:	8b 50 04             	mov    edx,DWORD PTR [eax+0x4]
 8048e9f:	8b 00                	mov    eax,DWORD PTR [eax]
 8048ea1:	89 45 c0             	mov    DWORD PTR [ebp-0x40],eax
 8048ea4:	89 55 c4             	mov    DWORD PTR [ebp-0x3c],edx
 8048ea7:	8b 45 0c             	mov    eax,DWORD PTR [ebp+0xc]
 8048eaa:	8d 40 08             	lea    eax,[eax+0x8]
 8048ead:	89 45 0c             	mov    DWORD PTR [ebp+0xc],eax
 8048eb0:	e9 5b ff ff ff       	jmp    8048e10 <.L139+0x1a>

08048eb5 <.L135>:
 8048eb5:	8b 45 0c             	mov    eax,DWORD PTR [ebp+0xc]
 8048eb8:	8b 00                	mov    eax,DWORD PTR [eax]
 8048eba:	89 c3                	mov    ebx,eax
 8048ebc:	c1 fb 1f             	sar    ebx,0x1f
 8048ebf:	89 45 c0             	mov    DWORD PTR [ebp-0x40],eax
 8048ec2:	89 5d c4             	mov    DWORD PTR [ebp-0x3c],ebx
 8048ec5:	8b 45 0c             	mov    eax,DWORD PTR [ebp+0xc]
 8048ec8:	8d 40 04             	lea    eax,[eax+0x4]
 8048ecb:	89 45 0c             	mov    DWORD PTR [ebp+0xc],eax
 8048ece:	e9 3d ff ff ff       	jmp    8048e10 <.L139+0x1a>

08048ed3 <.L134>:
 8048ed3:	8b 45 0c             	mov    eax,DWORD PTR [ebp+0xc]
 8048ed6:	8b 50 04             	mov    edx,DWORD PTR [eax+0x4]
 8048ed9:	8b 00                	mov    eax,DWORD PTR [eax]
 8048edb:	89 45 c0             	mov    DWORD PTR [ebp-0x40],eax
 8048ede:	89 55 c4             	mov    DWORD PTR [ebp-0x3c],edx
 8048ee1:	8b 45 0c             	mov    eax,DWORD PTR [ebp+0xc]
 8048ee4:	8d 40 08             	lea    eax,[eax+0x8]
 8048ee7:	89 45 0c             	mov    DWORD PTR [ebp+0xc],eax
 8048eea:	e9 21 ff ff ff       	jmp    8048e10 <.L139+0x1a>

08048eef <.L133>:
 8048eef:	8b 45 0c             	mov    eax,DWORD PTR [ebp+0xc]
 8048ef2:	8b 00                	mov    eax,DWORD PTR [eax]
 8048ef4:	89 c3                	mov    ebx,eax
 8048ef6:	c1 fb 1f             	sar    ebx,0x1f
 8048ef9:	89 45 c0             	mov    DWORD PTR [ebp-0x40],eax
 8048efc:	89 5d c4             	mov    DWORD PTR [ebp-0x3c],ebx
 8048eff:	8b 45 0c             	mov    eax,DWORD PTR [ebp+0xc]
 8048f02:	8d 40 04             	lea    eax,[eax+0x4]
 8048f05:	89 45 0c             	mov    DWORD PTR [ebp+0xc],eax
 8048f08:	e9 03 ff ff ff       	jmp    8048e10 <.L139+0x1a>

08048f0d <.L131>:
 8048f0d:	8b 45 0c             	mov    eax,DWORD PTR [ebp+0xc]
 8048f10:	8d 50 04             	lea    edx,[eax+0x4]
 8048f13:	8b 08                	mov    ecx,DWORD PTR [eax]
 8048f15:	bb 00 00 00 00       	mov    ebx,0x0
 8048f1a:	89 4d c0             	mov    DWORD PTR [ebp-0x40],ecx
 8048f1d:	89 5d c4             	mov    DWORD PTR [ebp-0x3c],ebx
 8048f20:	b8 ff ff ff 7f       	mov    eax,0x7fffffff
 8048f25:	8b 5d 0c             	mov    ebx,DWORD PTR [ebp+0xc]
 8048f28:	3b 03                	cmp    eax,DWORD PTR [ebx]
 8048f2a:	b8 00 00 00 00       	mov    eax,0x0
 8048f2f:	83 d8 00             	sbb    eax,0x0
 8048f32:	89 55 0c             	mov    DWORD PTR [ebp+0xc],edx
 8048f35:	0f 8d d5 fe ff ff    	jge    8048e10 <.L139+0x1a>
 8048f3b:	ff 4d c4             	dec    DWORD PTR [ebp-0x3c]
 8048f3e:	e9 cd fe ff ff       	jmp    8048e10 <.L139+0x1a>

08048f43 <.L130>:
 8048f43:	8d 87 5c fa ff ff    	lea    eax,[edi-0x5a4]
 8048f49:	89 44 24 0c          	mov    DWORD PTR [esp+0xc],eax
 8048f4d:	8d 87 f4 f9 ff ff    	lea    eax,[edi-0x60c]
 8048f53:	89 44 24 08          	mov    DWORD PTR [esp+0x8],eax
 8048f57:	c7 44 24 04 dc 00 00 	mov    DWORD PTR [esp+0x4],0xdc
 8048f5e:	00 
 8048f5f:	8d 87 72 fb ff ff    	lea    eax,[edi-0x48e]
 8048f65:	89 04 24             	mov    DWORD PTR [esp],eax
 8048f68:	89 fb                	mov    ebx,edi
 8048f6a:	e8 4b f4 ff ff       	call   80483ba <debug_panic>

08048f6f <.L128>:
 8048f6f:	8b 5d 0c             	mov    ebx,DWORD PTR [ebp+0xc]
 8048f72:	8b 0b                	mov    ecx,DWORD PTR [ebx]
 8048f74:	bb 00 00 00 00       	mov    ebx,0x0
 8048f79:	89 4d c0             	mov    DWORD PTR [ebp-0x40],ecx
 8048f7c:	89 5d c4             	mov    DWORD PTR [ebp-0x3c],ebx
 8048f7f:	8b 5d 0c             	mov    ebx,DWORD PTR [ebp+0xc]
 8048f82:	8d 5b 04             	lea    ebx,[ebx+0x4]
 8048f85:	89 5d 0c             	mov    DWORD PTR [ebp+0xc],ebx
 8048f88:	3c 75                	cmp    al,0x75
 8048f8a:	0f 84 2e 01 00 00    	je     80490be <.L126+0x58>
 8048f90:	3c 75                	cmp    al,0x75
 8048f92:	0f 8f ee 00 00 00    	jg     8049086 <.L126+0x20>
 8048f98:	3c 58                	cmp    al,0x58
 8048f9a:	0f 84 59 01 00 00    	je     80490f9 <.L126+0x93>
 8048fa0:	3c 6f                	cmp    al,0x6f
 8048fa2:	0f 85 ea 00 00 00    	jne    8049092 <.L126+0x2c>
 8048fa8:	8d 87 44 00 00 00    	lea    eax,[edi+0x44]
 8048fae:	e9 11 01 00 00       	jmp    80490c4 <.L126+0x5e>

08048fb3 <.L108>:
 8048fb3:	8b 75 0c             	mov    esi,DWORD PTR [ebp+0xc]
 8048fb6:	0f b6 16             	movzx  edx,BYTE PTR [esi]
 8048fb9:	89 55 c0             	mov    DWORD PTR [ebp-0x40],edx
 8048fbc:	c7 45 c4 00 00 00 00 	mov    DWORD PTR [ebp-0x3c],0x0
 8048fc3:	89 de                	mov    esi,ebx
 8048fc5:	8b 5d 0c             	mov    ebx,DWORD PTR [ebp+0xc]
 8048fc8:	8d 5b 04             	lea    ebx,[ebx+0x4]
 8048fcb:	89 5d 0c             	mov    DWORD PTR [ebp+0xc],ebx
 8048fce:	eb b8                	jmp    8048f88 <.L128+0x19>

08048fd0 <.L115>:
 8048fd0:	8b 75 0c             	mov    esi,DWORD PTR [ebp+0xc]
 8048fd3:	0f b7 16             	movzx  edx,WORD PTR [esi]
 8048fd6:	89 55 c0             	mov    DWORD PTR [ebp-0x40],edx
 8048fd9:	c7 45 c4 00 00 00 00 	mov    DWORD PTR [ebp-0x3c],0x0
 8048fe0:	89 de                	mov    esi,ebx
 8048fe2:	8b 5d 0c             	mov    ebx,DWORD PTR [ebp+0xc]
 8048fe5:	8d 5b 04             	lea    ebx,[ebx+0x4]
 8048fe8:	89 5d 0c             	mov    DWORD PTR [ebp+0xc],ebx
 8048feb:	eb 9b                	jmp    8048f88 <.L128+0x19>

08048fed <.L117>:
 8048fed:	8b 75 0c             	mov    esi,DWORD PTR [ebp+0xc]
 8048ff0:	8b 16                	mov    edx,DWORD PTR [esi]
 8048ff2:	8b 4e 04             	mov    ecx,DWORD PTR [esi+0x4]
 8048ff5:	89 55 c0             	mov    DWORD PTR [ebp-0x40],edx
 8048ff8:	89 4d c4             	mov    DWORD PTR [ebp-0x3c],ecx
 8048ffb:	89 de                	mov    esi,ebx
 8048ffd:	8b 5d 0c             	mov    ebx,DWORD PTR [ebp+0xc]
 8049000:	8d 5b 08             	lea    ebx,[ebx+0x8]
 8049003:	89 5d 0c             	mov    DWORD PTR [ebp+0xc],ebx
 8049006:	eb 80                	jmp    8048f88 <.L128+0x19>

08049008 <.L122>:
 8049008:	8b 75 0c             	mov    esi,DWORD PTR [ebp+0xc]
 804900b:	8b 16                	mov    edx,DWORD PTR [esi]
 804900d:	b9 00 00 00 00       	mov    ecx,0x0
 8049012:	89 55 c0             	mov    DWORD PTR [ebp-0x40],edx
 8049015:	89 4d c4             	mov    DWORD PTR [ebp-0x3c],ecx
 8049018:	89 de                	mov    esi,ebx
 804901a:	8b 5d 0c             	mov    ebx,DWORD PTR [ebp+0xc]
 804901d:	8d 5b 04             	lea    ebx,[ebx+0x4]
 8049020:	89 5d 0c             	mov    DWORD PTR [ebp+0xc],ebx
 8049023:	e9 60 ff ff ff       	jmp    8048f88 <.L128+0x19>

08049028 <.L120>:
 8049028:	8b 75 0c             	mov    esi,DWORD PTR [ebp+0xc]
 804902b:	8b 16                	mov    edx,DWORD PTR [esi]
 804902d:	8b 4e 04             	mov    ecx,DWORD PTR [esi+0x4]
 8049030:	89 55 c0             	mov    DWORD PTR [ebp-0x40],edx
 8049033:	89 4d c4             	mov    DWORD PTR [ebp-0x3c],ecx
 8049036:	89 de                	mov    esi,ebx
 8049038:	8b 5d 0c             	mov    ebx,DWORD PTR [ebp+0xc]
 804903b:	8d 5b 08             	lea    ebx,[ebx+0x8]
 804903e:	89 5d 0c             	mov    DWORD PTR [ebp+0xc],ebx
 8049041:	e9 42 ff ff ff       	jmp    8048f88 <.L128+0x19>

08049046 <.L124>:
 8049046:	8b 75 0c             	mov    esi,DWORD PTR [ebp+0xc]
 8049049:	8b 16                	mov    edx,DWORD PTR [esi]
 804904b:	b9 00 00 00 00       	mov    ecx,0x0
 8049050:	89 55 c0             	mov    DWORD PTR [ebp-0x40],edx
 8049053:	89 4d c4             	mov    DWORD PTR [ebp-0x3c],ecx
 8049056:	89 de                	mov    esi,ebx
 8049058:	8b 5d 0c             	mov    ebx,DWORD PTR [ebp+0xc]
 804905b:	8d 5b 04             	lea    ebx,[ebx+0x4]
 804905e:	89 5d 0c             	mov    DWORD PTR [ebp+0xc],ebx
 8049061:	e9 22 ff ff ff       	jmp    8048f88 <.L128+0x19>

08049066 <.L126>:
 8049066:	8b 75 0c             	mov    esi,DWORD PTR [ebp+0xc]
 8049069:	8b 16                	mov    edx,DWORD PTR [esi]
 804906b:	b9 00 00 00 00       	mov    ecx,0x0
 8049070:	89 55 c0             	mov    DWORD PTR [ebp-0x40],edx
 8049073:	89 4d c4             	mov    DWORD PTR [ebp-0x3c],ecx
 8049076:	89 de                	mov    esi,ebx
 8049078:	8b 5d 0c             	mov    ebx,DWORD PTR [ebp+0xc]
 804907b:	8d 5b 04             	lea    ebx,[ebx+0x4]
 804907e:	89 5d 0c             	mov    DWORD PTR [ebp+0xc],ebx
 8049081:	e9 02 ff ff ff       	jmp    8048f88 <.L128+0x19>
 8049086:	3c 78                	cmp    al,0x78
 8049088:	75 08                	jne    8049092 <.L126+0x2c>
 804908a:	8d 87 34 00 00 00    	lea    eax,[edi+0x34]
 8049090:	eb 32                	jmp    80490c4 <.L126+0x5e>
 8049092:	8d 87 5c fa ff ff    	lea    eax,[edi-0x5a4]
 8049098:	89 44 24 0c          	mov    DWORD PTR [esp+0xc],eax
 804909c:	8d 87 f4 f9 ff ff    	lea    eax,[edi-0x60c]
 80490a2:	89 44 24 08          	mov    DWORD PTR [esp+0x8],eax
 80490a6:	c7 44 24 04 14 01 00 	mov    DWORD PTR [esp+0x4],0x114
 80490ad:	00 
 80490ae:	8d 87 72 fb ff ff    	lea    eax,[edi-0x48e]
 80490b4:	89 04 24             	mov    DWORD PTR [esp],eax
 80490b7:	89 fb                	mov    ebx,edi
 80490b9:	e8 fc f2 ff ff       	call   80483ba <debug_panic>
 80490be:	8d 87 54 00 00 00    	lea    eax,[edi+0x54]
 80490c4:	8b 5d 14             	mov    ebx,DWORD PTR [ebp+0x14]
 80490c7:	89 5c 24 10          	mov    DWORD PTR [esp+0x10],ebx
 80490cb:	8b 5d 10             	mov    ebx,DWORD PTR [ebp+0x10]
 80490ce:	89 5c 24 0c          	mov    DWORD PTR [esp+0xc],ebx
 80490d2:	8d 55 d8             	lea    edx,[ebp-0x28]
 80490d5:	89 54 24 08          	mov    DWORD PTR [esp+0x8],edx
 80490d9:	89 44 24 04          	mov    DWORD PTR [esp+0x4],eax
 80490dd:	c7 04 24 00 00 00 00 	mov    DWORD PTR [esp],0x0
 80490e4:	b9 00 00 00 00       	mov    ecx,0x0
 80490e9:	8b 45 c0             	mov    eax,DWORD PTR [ebp-0x40]
 80490ec:	8b 55 c4             	mov    edx,DWORD PTR [ebp-0x3c]
 80490ef:	e8 c1 f5 ff ff       	call   80486b5 <format_integer>
 80490f4:	e9 ea f9 ff ff       	jmp    8048ae3 <__vprintf+0x38>
 80490f9:	8d 87 24 00 00 00    	lea    eax,[edi+0x24]
 80490ff:	eb c3                	jmp    80490c4 <.L126+0x5e>

08049101 <.L151>:
 8049101:	89 de                	mov    esi,ebx
 8049103:	eb 06                	jmp    804910b <.L114>

08049105 <.L155>:
 8049105:	89 de                	mov    esi,ebx
 8049107:	eb 02                	jmp    804910b <.L114>

08049109 <.L159>:
 8049109:	89 de                	mov    esi,ebx

0804910b <.L114>:
 804910b:	8b 45 0c             	mov    eax,DWORD PTR [ebp+0xc]
 804910e:	8d 58 04             	lea    ebx,[eax+0x4]
 8049111:	8b 00                	mov    eax,DWORD PTR [eax]
 8049113:	88 45 d7             	mov    BYTE PTR [ebp-0x29],al
 8049116:	8d 4d d8             	lea    ecx,[ebp-0x28]
 8049119:	8d 45 d7             	lea    eax,[ebp-0x29]
 804911c:	8b 55 14             	mov    edx,DWORD PTR [ebp+0x14]
 804911f:	89 54 24 04          	mov    DWORD PTR [esp+0x4],edx
 8049123:	8b 55 10             	mov    edx,DWORD PTR [ebp+0x10]
 8049126:	89 14 24             	mov    DWORD PTR [esp],edx
 8049129:	ba 01 00 00 00       	mov    edx,0x1
 804912e:	e8 94 f8 ff ff       	call   80489c7 <format_string>
 8049133:	89 5d 0c             	mov    DWORD PTR [ebp+0xc],ebx
 8049136:	e9 a8 f9 ff ff       	jmp    8048ae3 <__vprintf+0x38>

0804913b <.L163>:
 804913b:	89 de                	mov    esi,ebx
 804913d:	eb cc                	jmp    804910b <.L114>

0804913f <.L167>:
 804913f:	89 de                	mov    esi,ebx
 8049141:	eb c8                	jmp    804910b <.L114>

08049143 <.L171>:
 8049143:	89 de                	mov    esi,ebx
 8049145:	eb c4                	jmp    804910b <.L114>

08049147 <.L175>:
 8049147:	89 de                	mov    esi,ebx
 8049149:	eb c0                	jmp    804910b <.L114>

0804914b <.L154>:
 804914b:	89 de                	mov    esi,ebx
 804914d:	8d 76 00             	lea    esi,[esi+0x0]
 8049150:	eb 06                	jmp    8049158 <.L110>

08049152 <.L158>:
 8049152:	89 de                	mov    esi,ebx
 8049154:	eb 02                	jmp    8049158 <.L110>

08049156 <.L162>:
 8049156:	89 de                	mov    esi,ebx

08049158 <.L110>:
 8049158:	8b 45 0c             	mov    eax,DWORD PTR [ebp+0xc]
 804915b:	83 c0 04             	add    eax,0x4
 804915e:	89 45 b8             	mov    DWORD PTR [ebp-0x48],eax
 8049161:	8b 45 0c             	mov    eax,DWORD PTR [ebp+0xc]
 8049164:	8b 00                	mov    eax,DWORD PTR [eax]
 8049166:	89 45 bc             	mov    DWORD PTR [ebp-0x44],eax
 8049169:	85 c0                	test   eax,eax
 804916b:	74 49                	je     80491b6 <.L178+0x4>
 804916d:	8b 45 c0             	mov    eax,DWORD PTR [ebp-0x40]
 8049170:	89 44 24 04          	mov    DWORD PTR [esp+0x4],eax
 8049174:	8b 45 bc             	mov    eax,DWORD PTR [ebp-0x44]
 8049177:	89 04 24             	mov    DWORD PTR [esp],eax
 804917a:	89 fb                	mov    ebx,edi
 804917c:	e8 16 0c 00 00       	call   8049d97 <strnlen>
 8049181:	89 c2                	mov    edx,eax
 8049183:	8d 4d d8             	lea    ecx,[ebp-0x28]
 8049186:	8b 5d 14             	mov    ebx,DWORD PTR [ebp+0x14]
 8049189:	89 5c 24 04          	mov    DWORD PTR [esp+0x4],ebx
 804918d:	8b 5d 10             	mov    ebx,DWORD PTR [ebp+0x10]
 8049190:	89 1c 24             	mov    DWORD PTR [esp],ebx
 8049193:	8b 45 bc             	mov    eax,DWORD PTR [ebp-0x44]
 8049196:	e8 2c f8 ff ff       	call   80489c7 <format_string>
 804919b:	8b 45 b8             	mov    eax,DWORD PTR [ebp-0x48]
 804919e:	89 45 0c             	mov    DWORD PTR [ebp+0xc],eax
 80491a1:	e9 3d f9 ff ff       	jmp    8048ae3 <__vprintf+0x38>

080491a6 <.L166>:
 80491a6:	89 de                	mov    esi,ebx
 80491a8:	eb ae                	jmp    8049158 <.L110>

080491aa <.L170>:
 80491aa:	89 de                	mov    esi,ebx
 80491ac:	eb aa                	jmp    8049158 <.L110>

080491ae <.L174>:
 80491ae:	89 de                	mov    esi,ebx
 80491b0:	eb a6                	jmp    8049158 <.L110>

080491b2 <.L178>:
 80491b2:	89 de                	mov    esi,ebx
 80491b4:	eb a2                	jmp    8049158 <.L110>
 80491b6:	8d 87 6b fb ff ff    	lea    eax,[edi-0x495]
 80491bc:	89 45 bc             	mov    DWORD PTR [ebp-0x44],eax
 80491bf:	eb ac                	jmp    804916d <.L110+0x15>

080491c1 <.L153>:
 80491c1:	89 de                	mov    esi,ebx
 80491c3:	eb 06                	jmp    80491cb <.L111>

080491c5 <.L157>:
 80491c5:	89 de                	mov    esi,ebx
 80491c7:	eb 02                	jmp    80491cb <.L111>

080491c9 <.L161>:
 80491c9:	89 de                	mov    esi,ebx

080491cb <.L111>:
 80491cb:	8b 45 0c             	mov    eax,DWORD PTR [ebp+0xc]
 80491ce:	8d 58 04             	lea    ebx,[eax+0x4]
 80491d1:	8b 00                	mov    eax,DWORD PTR [eax]
 80491d3:	c7 45 d8 08 00 00 00 	mov    DWORD PTR [ebp-0x28],0x8
 80491da:	ba 00 00 00 00       	mov    edx,0x0
 80491df:	8b 4d 14             	mov    ecx,DWORD PTR [ebp+0x14]
 80491e2:	89 4c 24 10          	mov    DWORD PTR [esp+0x10],ecx
 80491e6:	8b 4d 10             	mov    ecx,DWORD PTR [ebp+0x10]
 80491e9:	89 4c 24 0c          	mov    DWORD PTR [esp+0xc],ecx
 80491ed:	8d 4d d8             	lea    ecx,[ebp-0x28]
 80491f0:	89 4c 24 08          	mov    DWORD PTR [esp+0x8],ecx
 80491f4:	8d 8f 34 00 00 00    	lea    ecx,[edi+0x34]
 80491fa:	89 4c 24 04          	mov    DWORD PTR [esp+0x4],ecx
 80491fe:	c7 04 24 00 00 00 00 	mov    DWORD PTR [esp],0x0
 8049205:	b9 00 00 00 00       	mov    ecx,0x0
 804920a:	e8 a6 f4 ff ff       	call   80486b5 <format_integer>
 804920f:	89 5d 0c             	mov    DWORD PTR [ebp+0xc],ebx
 8049212:	e9 cc f8 ff ff       	jmp    8048ae3 <__vprintf+0x38>

08049217 <.L165>:
 8049217:	89 de                	mov    esi,ebx
 8049219:	eb b0                	jmp    80491cb <.L111>

0804921b <.L169>:
 804921b:	89 de                	mov    esi,ebx
 804921d:	8d 76 00             	lea    esi,[esi+0x0]
 8049220:	eb a9                	jmp    80491cb <.L111>

08049222 <.L173>:
 8049222:	89 de                	mov    esi,ebx
 8049224:	eb a5                	jmp    80491cb <.L111>

08049226 <.L177>:
 8049226:	89 de                	mov    esi,ebx
 8049228:	eb a1                	jmp    80491cb <.L111>

0804922a <.L180>:
 804922a:	89 f3                	mov    ebx,esi

0804922c <.L112>:
 804922c:	0f be c0             	movsx  eax,al
 804922f:	89 44 24 0c          	mov    DWORD PTR [esp+0xc],eax
 8049233:	8b 45 14             	mov    eax,DWORD PTR [ebp+0x14]
 8049236:	89 44 24 08          	mov    DWORD PTR [esp+0x8],eax
 804923a:	8b 45 10             	mov    eax,DWORD PTR [ebp+0x10]
 804923d:	89 44 24 04          	mov    DWORD PTR [esp+0x4],eax
 8049241:	8d 87 81 fb ff ff    	lea    eax,[edi-0x47f]
 8049247:	89 04 24             	mov    DWORD PTR [esp],eax
 804924a:	e8 32 f8 ff ff       	call   8048a81 <__printf>
 804924f:	89 de                	mov    esi,ebx
 8049251:	e9 8d f8 ff ff       	jmp    8048ae3 <__vprintf+0x38>

08049256 <.L179>:
 8049256:	89 f3                	mov    ebx,esi

08049258 <.L107>:
 8049258:	0f be c0             	movsx  eax,al
 804925b:	89 44 24 0c          	mov    DWORD PTR [esp+0xc],eax
 804925f:	8b 45 14             	mov    eax,DWORD PTR [ebp+0x14]
 8049262:	89 44 24 08          	mov    DWORD PTR [esp+0x8],eax
 8049266:	8b 45 10             	mov    eax,DWORD PTR [ebp+0x10]
 8049269:	89 44 24 04          	mov    DWORD PTR [esp+0x4],eax
 804926d:	8d 87 97 fb ff ff    	lea    eax,[edi-0x469]
 8049273:	89 04 24             	mov    DWORD PTR [esp],eax
 8049276:	e8 06 f8 ff ff       	call   8048a81 <__printf>
 804927b:	89 de                	mov    esi,ebx
 804927d:	e9 61 f8 ff ff       	jmp    8048ae3 <__vprintf+0x38>

08049282 <vsnprintf>:
 8049282:	55                   	push   ebp
 8049283:	89 e5                	mov    ebp,esp
 8049285:	56                   	push   esi
 8049286:	53                   	push   ebx
 8049287:	83 ec 20             	sub    esp,0x20
 804928a:	e8 0a 10 00 00       	call   804a299 <__x86.get_pc_thunk.bx>
 804928f:	81 c3 71 1d 00 00    	add    ebx,0x1d71
 8049295:	8b 45 0c             	mov    eax,DWORD PTR [ebp+0xc]
 8049298:	8b 55 10             	mov    edx,DWORD PTR [ebp+0x10]
 804929b:	8b 4d 14             	mov    ecx,DWORD PTR [ebp+0x14]
 804929e:	8b 75 08             	mov    esi,DWORD PTR [ebp+0x8]
 80492a1:	89 75 ec             	mov    DWORD PTR [ebp-0x14],esi
 80492a4:	c7 45 f0 00 00 00 00 	mov    DWORD PTR [ebp-0x10],0x0
 80492ab:	85 c0                	test   eax,eax
 80492ad:	74 31                	je     80492e0 <vsnprintf+0x5e>
 80492af:	48                   	dec    eax
 80492b0:	89 45 f4             	mov    DWORD PTR [ebp-0xc],eax
 80492b3:	8d 45 ec             	lea    eax,[ebp-0x14]
 80492b6:	89 44 24 0c          	mov    DWORD PTR [esp+0xc],eax
 80492ba:	8d 83 60 d6 ff ff    	lea    eax,[ebx-0x29a0]
 80492c0:	89 44 24 08          	mov    DWORD PTR [esp+0x8],eax
 80492c4:	89 4c 24 04          	mov    DWORD PTR [esp+0x4],ecx
 80492c8:	89 14 24             	mov    DWORD PTR [esp],edx
 80492cb:	e8 db f7 ff ff       	call   8048aab <__vprintf>
 80492d0:	8b 45 ec             	mov    eax,DWORD PTR [ebp-0x14]
 80492d3:	c6 00 00             	mov    BYTE PTR [eax],0x0
 80492d6:	8b 45 f0             	mov    eax,DWORD PTR [ebp-0x10]
 80492d9:	83 c4 20             	add    esp,0x20
 80492dc:	5b                   	pop    ebx
 80492dd:	5e                   	pop    esi
 80492de:	5d                   	pop    ebp
 80492df:	c3                   	ret
 80492e0:	c7 45 f4 00 00 00 00 	mov    DWORD PTR [ebp-0xc],0x0
 80492e7:	8d 45 ec             	lea    eax,[ebp-0x14]
 80492ea:	89 44 24 0c          	mov    DWORD PTR [esp+0xc],eax
 80492ee:	8d 83 60 d6 ff ff    	lea    eax,[ebx-0x29a0]
 80492f4:	89 44 24 08          	mov    DWORD PTR [esp+0x8],eax
 80492f8:	89 4c 24 04          	mov    DWORD PTR [esp+0x4],ecx
 80492fc:	89 14 24             	mov    DWORD PTR [esp],edx
 80492ff:	e8 a7 f7 ff ff       	call   8048aab <__vprintf>
 8049304:	eb d0                	jmp    80492d6 <vsnprintf+0x54>

08049306 <snprintf>:
 8049306:	55                   	push   ebp
 8049307:	89 e5                	mov    ebp,esp
 8049309:	83 ec 18             	sub    esp,0x18
 804930c:	8d 45 14             	lea    eax,[ebp+0x14]
 804930f:	89 44 24 0c          	mov    DWORD PTR [esp+0xc],eax
 8049313:	8b 45 10             	mov    eax,DWORD PTR [ebp+0x10]
 8049316:	89 44 24 08          	mov    DWORD PTR [esp+0x8],eax
 804931a:	8b 45 0c             	mov    eax,DWORD PTR [ebp+0xc]
 804931d:	89 44 24 04          	mov    DWORD PTR [esp+0x4],eax
 8049321:	8b 45 08             	mov    eax,DWORD PTR [ebp+0x8]
 8049324:	89 04 24             	mov    DWORD PTR [esp],eax
 8049327:	e8 56 ff ff ff       	call   8049282 <vsnprintf>
 804932c:	89 ec                	mov    esp,ebp
 804932e:	5d                   	pop    ebp
 804932f:	c3                   	ret

08049330 <hex_dump>:
 8049330:	55                   	push   ebp
 8049331:	89 e5                	mov    ebp,esp
 8049333:	57                   	push   edi
 8049334:	56                   	push   esi
 8049335:	53                   	push   ebx
 8049336:	83 ec 3c             	sub    esp,0x3c
 8049339:	e8 57 0f 00 00       	call   804a295 <__x86.get_pc_thunk.dx>
 804933e:	81 c2 c2 1c 00 00    	add    edx,0x1cc2
 8049344:	89 55 e0             	mov    DWORD PTR [ebp-0x20],edx
 8049347:	0f b6 45 14          	movzx  eax,BYTE PTR [ebp+0x14]
 804934b:	88 45 db             	mov    BYTE PTR [ebp-0x25],al
 804934e:	83 7d 10 00          	cmp    DWORD PTR [ebp+0x10],0x0
 8049352:	0f 84 e0 01 00 00    	je     8049538 <hex_dump+0x208>
 8049358:	8d 82 ae fb ff ff    	lea    eax,[edx-0x452]
 804935e:	89 45 d4             	mov    DWORD PTR [ebp-0x2c],eax
 8049361:	e9 c0 00 00 00       	jmp    8049426 <hex_dump+0xf6>
 8049366:	8b 45 e4             	mov    eax,DWORD PTR [ebp-0x1c]
 8049369:	29 f8                	sub    eax,edi
 804936b:	89 45 dc             	mov    DWORD PTR [ebp-0x24],eax
 804936e:	8b 45 08             	mov    eax,DWORD PTR [ebp+0x8]
 8049371:	83 e0 f0             	and    eax,0xfffffff0
 8049374:	89 44 24 04          	mov    DWORD PTR [esp+0x4],eax
 8049378:	c7 44 24 08 00 00 00 	mov    DWORD PTR [esp+0x8],0x0
 804937f:	00 
 8049380:	8b 45 d4             	mov    eax,DWORD PTR [ebp-0x2c]
 8049383:	89 04 24             	mov    DWORD PTR [esp],eax
 8049386:	e8 c9 f6 ff ff       	call   8048a54 <printf>
 804938b:	85 ff                	test   edi,edi
 804938d:	0f 84 bd 00 00 00    	je     8049450 <hex_dump+0x120>
 8049393:	bb 00 00 00 00       	mov    ebx,0x0
 8049398:	8b 45 e0             	mov    eax,DWORD PTR [ebp-0x20]
 804939b:	8d b0 b6 fb ff ff    	lea    esi,[eax-0x44a]
 80493a1:	89 34 24             	mov    DWORD PTR [esp],esi
 80493a4:	e8 ab f6 ff ff       	call   8048a54 <printf>
 80493a9:	43                   	inc    ebx
 80493aa:	39 df                	cmp    edi,ebx
 80493ac:	75 f3                	jne    80493a1 <hex_dump+0x71>
 80493ae:	89 fb                	mov    ebx,edi
 80493b0:	8b 45 e4             	mov    eax,DWORD PTR [ebp-0x1c]
 80493b3:	39 c3                	cmp    ebx,eax
 80493b5:	0f 83 6e 01 00 00    	jae    8049529 <hex_dump+0x1f9>
 80493bb:	8b 45 e0             	mov    eax,DWORD PTR [ebp-0x20]
 80493be:	8d b0 ba fb ff ff    	lea    esi,[eax-0x446]
 80493c4:	83 fb 07             	cmp    ebx,0x7
 80493c7:	b8 2d 00 00 00       	mov    eax,0x2d
 80493cc:	b9 20 00 00 00       	mov    ecx,0x20
 80493d1:	0f 45 c1             	cmovne eax,ecx
 80493d4:	89 44 24 08          	mov    DWORD PTR [esp+0x8],eax
 80493d8:	8b 45 0c             	mov    eax,DWORD PTR [ebp+0xc]
 80493db:	29 f8                	sub    eax,edi
 80493dd:	0f b6 04 18          	movzx  eax,BYTE PTR [eax+ebx*1]
 80493e1:	89 44 24 04          	mov    DWORD PTR [esp+0x4],eax
 80493e5:	89 34 24             	mov    DWORD PTR [esp],esi
 80493e8:	e8 67 f6 ff ff       	call   8048a54 <printf>
 80493ed:	43                   	inc    ebx
 80493ee:	39 5d e4             	cmp    DWORD PTR [ebp-0x1c],ebx
 80493f1:	75 d1                	jne    80493c4 <hex_dump+0x94>
 80493f3:	80 7d db 00          	cmp    BYTE PTR [ebp-0x25],0x0
 80493f7:	75 5e                	jne    8049457 <hex_dump+0x127>
 80493f9:	8b 45 e0             	mov    eax,DWORD PTR [ebp-0x20]
 80493fc:	8d 80 69 fb ff ff    	lea    eax,[eax-0x497]
 8049402:	89 04 24             	mov    DWORD PTR [esp],eax
 8049405:	e8 4a f6 ff ff       	call   8048a54 <printf>
 804940a:	8b 45 dc             	mov    eax,DWORD PTR [ebp-0x24]
 804940d:	01 45 08             	add    DWORD PTR [ebp+0x8],eax
 8049410:	01 45 0c             	add    DWORD PTR [ebp+0xc],eax
 8049413:	89 f8                	mov    eax,edi
 8049415:	03 45 10             	add    eax,DWORD PTR [ebp+0x10]
 8049418:	8b 55 e4             	mov    edx,DWORD PTR [ebp-0x1c]
 804941b:	29 d0                	sub    eax,edx
 804941d:	89 45 10             	mov    DWORD PTR [ebp+0x10],eax
 8049420:	0f 84 12 01 00 00    	je     8049538 <hex_dump+0x208>
 8049426:	8b 7d 08             	mov    edi,DWORD PTR [ebp+0x8]
 8049429:	83 e7 0f             	and    edi,0xf
 804942c:	b8 10 00 00 00       	mov    eax,0x10
 8049431:	29 f8                	sub    eax,edi
 8049433:	c7 45 e4 10 00 00 00 	mov    DWORD PTR [ebp-0x1c],0x10
 804943a:	39 45 10             	cmp    DWORD PTR [ebp+0x10],eax
 804943d:	0f 83 23 ff ff ff    	jae    8049366 <hex_dump+0x36>
 8049443:	89 f8                	mov    eax,edi
 8049445:	03 45 10             	add    eax,DWORD PTR [ebp+0x10]
 8049448:	89 45 e4             	mov    DWORD PTR [ebp-0x1c],eax
 804944b:	e9 16 ff ff ff       	jmp    8049366 <hex_dump+0x36>
 8049450:	89 fb                	mov    ebx,edi
 8049452:	e9 59 ff ff ff       	jmp    80493b0 <hex_dump+0x80>
 8049457:	83 fb 0f             	cmp    ebx,0xf
 804945a:	77 17                	ja     8049473 <hex_dump+0x143>
 804945c:	8b 45 e0             	mov    eax,DWORD PTR [ebp-0x20]
 804945f:	8d b0 b6 fb ff ff    	lea    esi,[eax-0x44a]
 8049465:	89 34 24             	mov    DWORD PTR [esp],esi
 8049468:	e8 e7 f5 ff ff       	call   8048a54 <printf>
 804946d:	43                   	inc    ebx
 804946e:	83 fb 10             	cmp    ebx,0x10
 8049471:	75 f2                	jne    8049465 <hex_dump+0x135>
 8049473:	8b 75 e0             	mov    esi,DWORD PTR [ebp-0x20]
 8049476:	8d 86 c3 fb ff ff    	lea    eax,[esi-0x43d]
 804947c:	89 04 24             	mov    DWORD PTR [esp],eax
 804947f:	e8 d0 f5 ff ff       	call   8048a54 <printf>
 8049484:	85 ff                	test   edi,edi
 8049486:	74 3d                	je     80494c5 <hex_dump+0x195>
 8049488:	bb 00 00 00 00       	mov    ebx,0x0
 804948d:	8d b6 b8 fb ff ff    	lea    esi,[esi-0x448]
 8049493:	89 34 24             	mov    DWORD PTR [esp],esi
 8049496:	e8 b9 f5 ff ff       	call   8048a54 <printf>
 804949b:	43                   	inc    ebx
 804949c:	39 df                	cmp    edi,ebx
 804949e:	75 f3                	jne    8049493 <hex_dump+0x163>
 80494a0:	89 fb                	mov    ebx,edi
 80494a2:	8b 55 e4             	mov    edx,DWORD PTR [ebp-0x1c]
 80494a5:	39 d3                	cmp    ebx,edx
 80494a7:	73 53                	jae    80494fc <hex_dump+0x1cc>
 80494a9:	29 fb                	sub    ebx,edi
 80494ab:	03 5d 0c             	add    ebx,DWORD PTR [ebp+0xc]
 80494ae:	8b 45 0c             	mov    eax,DWORD PTR [ebp+0xc]
 80494b1:	29 f8                	sub    eax,edi
 80494b3:	01 d0                	add    eax,edx
 80494b5:	8b 55 e0             	mov    edx,DWORD PTR [ebp-0x20]
 80494b8:	8d b2 c0 fb ff ff    	lea    esi,[edx-0x440]
 80494be:	89 7d d0             	mov    DWORD PTR [ebp-0x30],edi
 80494c1:	89 c7                	mov    edi,eax
 80494c3:	eb 18                	jmp    80494dd <hex_dump+0x1ad>
 80494c5:	89 fb                	mov    ebx,edi
 80494c7:	eb d9                	jmp    80494a2 <hex_dump+0x172>
 80494c9:	0f b6 c0             	movzx  eax,al
 80494cc:	89 44 24 04          	mov    DWORD PTR [esp+0x4],eax
 80494d0:	89 34 24             	mov    DWORD PTR [esp],esi
 80494d3:	e8 7c f5 ff ff       	call   8048a54 <printf>
 80494d8:	43                   	inc    ebx
 80494d9:	39 df                	cmp    edi,ebx
 80494db:	74 12                	je     80494ef <hex_dump+0x1bf>
 80494dd:	0f b6 03             	movzx  eax,BYTE PTR [ebx]
 80494e0:	0f b6 d0             	movzx  edx,al
 80494e3:	83 ea 20             	sub    edx,0x20
 80494e6:	83 fa 5e             	cmp    edx,0x5e
 80494e9:	76 de                	jbe    80494c9 <hex_dump+0x199>
 80494eb:	b0 2e                	mov    al,0x2e
 80494ed:	eb da                	jmp    80494c9 <hex_dump+0x199>
 80494ef:	8b 7d d0             	mov    edi,DWORD PTR [ebp-0x30]
 80494f2:	8b 45 e4             	mov    eax,DWORD PTR [ebp-0x1c]
 80494f5:	83 f8 0f             	cmp    eax,0xf
 80494f8:	77 19                	ja     8049513 <hex_dump+0x1e3>
 80494fa:	89 c3                	mov    ebx,eax
 80494fc:	8b 45 e0             	mov    eax,DWORD PTR [ebp-0x20]
 80494ff:	8d b0 b8 fb ff ff    	lea    esi,[eax-0x448]
 8049505:	89 34 24             	mov    DWORD PTR [esp],esi
 8049508:	e8 47 f5 ff ff       	call   8048a54 <printf>
 804950d:	43                   	inc    ebx
 804950e:	83 fb 10             	cmp    ebx,0x10
 8049511:	75 f2                	jne    8049505 <hex_dump+0x1d5>
 8049513:	8b 45 e0             	mov    eax,DWORD PTR [ebp-0x20]
 8049516:	8d 80 c3 fb ff ff    	lea    eax,[eax-0x43d]
 804951c:	89 04 24             	mov    DWORD PTR [esp],eax
 804951f:	e8 30 f5 ff ff       	call   8048a54 <printf>
 8049524:	e9 d0 fe ff ff       	jmp    80493f9 <hex_dump+0xc9>
 8049529:	80 7d db 00          	cmp    BYTE PTR [ebp-0x25],0x0
 804952d:	0f 84 c6 fe ff ff    	je     80493f9 <hex_dump+0xc9>
 8049533:	e9 24 ff ff ff       	jmp    804945c <hex_dump+0x12c>
 8049538:	83 c4 3c             	add    esp,0x3c
 804953b:	5b                   	pop    ebx
 804953c:	5e                   	pop    esi
 804953d:	5f                   	pop    edi
 804953e:	5d                   	pop    ebp
 804953f:	c3                   	ret

08049540 <print_human_readable_size>:
 8049540:	55                   	push   ebp
 8049541:	89 e5                	mov    ebp,esp
 8049543:	57                   	push   edi
 8049544:	56                   	push   esi
 8049545:	53                   	push   ebx
 8049546:	83 ec 2c             	sub    esp,0x2c
 8049549:	e8 4f 0d 00 00       	call   804a29d <__x86.get_pc_thunk.di>
 804954e:	81 c7 b2 1a 00 00    	add    edi,0x1ab2
 8049554:	89 7d e4             	mov    DWORD PTR [ebp-0x1c],edi
 8049557:	8b 45 08             	mov    eax,DWORD PTR [ebp+0x8]
 804955a:	8b 55 0c             	mov    edx,DWORD PTR [ebp+0xc]
 804955d:	89 c1                	mov    ecx,eax
 804955f:	83 f1 01             	xor    ecx,0x1
 8049562:	09 d1                	or     ecx,edx
 8049564:	74 40                	je     80495a6 <print_human_readable_size+0x66>
 8049566:	b9 ff 03 00 00       	mov    ecx,0x3ff
 804956b:	39 c1                	cmp    ecx,eax
 804956d:	b9 00 00 00 00       	mov    ecx,0x0
 8049572:	19 d1                	sbb    ecx,edx
 8049574:	8d 8f 0c 00 00 00    	lea    ecx,[edi+0xc]
 804957a:	73 41                	jae    80495bd <print_human_readable_size+0x7d>
 804957c:	83 79 04 00          	cmp    DWORD PTR [ecx+0x4],0x0
 8049580:	74 3b                	je     80495bd <print_human_readable_size+0x7d>
 8049582:	89 c6                	mov    esi,eax
 8049584:	89 d7                	mov    edi,edx
 8049586:	0f ac fe 0a          	shrd   esi,edi,0xa
 804958a:	c1 ef 0a             	shr    edi,0xa
 804958d:	83 c1 04             	add    ecx,0x4
 8049590:	bb ff ff 0f 00       	mov    ebx,0xfffff
 8049595:	39 c3                	cmp    ebx,eax
 8049597:	bb 00 00 00 00       	mov    ebx,0x0
 804959c:	19 d3                	sbb    ebx,edx
 804959e:	73 19                	jae    80495b9 <print_human_readable_size+0x79>
 80495a0:	89 f0                	mov    eax,esi
 80495a2:	89 fa                	mov    edx,edi
 80495a4:	eb d6                	jmp    804957c <print_human_readable_size+0x3c>
 80495a6:	8b 45 e4             	mov    eax,DWORD PTR [ebp-0x1c]
 80495a9:	8d 80 c5 fb ff ff    	lea    eax,[eax-0x43b]
 80495af:	89 04 24             	mov    DWORD PTR [esp],eax
 80495b2:	e8 9d f4 ff ff       	call   8048a54 <printf>
 80495b7:	eb 23                	jmp    80495dc <print_human_readable_size+0x9c>
 80495b9:	89 f0                	mov    eax,esi
 80495bb:	89 fa                	mov    edx,edi
 80495bd:	8b 09                	mov    ecx,DWORD PTR [ecx]
 80495bf:	89 4c 24 0c          	mov    DWORD PTR [esp+0xc],ecx
 80495c3:	89 44 24 04          	mov    DWORD PTR [esp+0x4],eax
 80495c7:	89 54 24 08          	mov    DWORD PTR [esp+0x8],edx
 80495cb:	8b 45 e4             	mov    eax,DWORD PTR [ebp-0x1c]
 80495ce:	8d 80 cc fb ff ff    	lea    eax,[eax-0x434]
 80495d4:	89 04 24             	mov    DWORD PTR [esp],eax
 80495d7:	e8 78 f4 ff ff       	call   8048a54 <printf>
 80495dc:	83 c4 2c             	add    esp,0x2c
 80495df:	5b                   	pop    ebx
 80495e0:	5e                   	pop    esi
 80495e1:	5f                   	pop    edi
 80495e2:	5d                   	pop    ebp
 80495e3:	c3                   	ret
 80495e4:	90                   	nop
 80495e5:	90                   	nop
 80495e6:	90                   	nop
 80495e7:	90                   	nop
 80495e8:	90                   	nop
 80495e9:	90                   	nop
 80495ea:	90                   	nop
 80495eb:	90                   	nop
 80495ec:	90                   	nop
 80495ed:	90                   	nop
 80495ee:	90                   	nop
 80495ef:	90                   	nop

080495f0 <memcpy>:
 80495f0:	55                   	push   ebp
 80495f1:	89 e5                	mov    ebp,esp
 80495f3:	57                   	push   edi
 80495f4:	56                   	push   esi
 80495f5:	53                   	push   ebx
 80495f6:	83 ec 2c             	sub    esp,0x2c
 80495f9:	e8 a7 0c 00 00       	call   804a2a5 <__x86.get_pc_thunk.cx>
 80495fe:	81 c1 02 1a 00 00    	add    ecx,0x1a02
 8049604:	8b 7d 08             	mov    edi,DWORD PTR [ebp+0x8]
 8049607:	8b 55 0c             	mov    edx,DWORD PTR [ebp+0xc]
 804960a:	8b 75 10             	mov    esi,DWORD PTR [ebp+0x10]
 804960d:	85 f6                	test   esi,esi
 804960f:	0f 94 c0             	sete   al
 8049612:	85 ff                	test   edi,edi
 8049614:	75 04                	jne    804961a <memcpy+0x2a>
 8049616:	84 c0                	test   al,al
 8049618:	74 28                	je     8049642 <memcpy+0x52>
 804961a:	85 d2                	test   edx,edx
 804961c:	75 04                	jne    8049622 <memcpy+0x32>
 804961e:	84 c0                	test   al,al
 8049620:	74 56                	je     8049678 <memcpy+0x88>
 8049622:	8d 0c 37             	lea    ecx,[edi+esi*1]
 8049625:	89 f8                	mov    eax,edi
 8049627:	85 f6                	test   esi,esi
 8049629:	74 0d                	je     8049638 <memcpy+0x48>
 804962b:	42                   	inc    edx
 804962c:	40                   	inc    eax
 804962d:	0f b6 5a ff          	movzx  ebx,BYTE PTR [edx-0x1]
 8049631:	88 58 ff             	mov    BYTE PTR [eax-0x1],bl
 8049634:	39 c1                	cmp    ecx,eax
 8049636:	75 f3                	jne    804962b <memcpy+0x3b>
 8049638:	89 f8                	mov    eax,edi
 804963a:	83 c4 2c             	add    esp,0x2c
 804963d:	5b                   	pop    ebx
 804963e:	5e                   	pop    esi
 804963f:	5f                   	pop    edi
 8049640:	5d                   	pop    ebp
 8049641:	c3                   	ret
 8049642:	8d 81 1c fc ff ff    	lea    eax,[ecx-0x3e4]
 8049648:	89 44 24 10          	mov    DWORD PTR [esp+0x10],eax
 804964c:	8d 81 35 fc ff ff    	lea    eax,[ecx-0x3cb]
 8049652:	89 44 24 0c          	mov    DWORD PTR [esp+0xc],eax
 8049656:	8d 81 54 fa ff ff    	lea    eax,[ecx-0x5ac]
 804965c:	89 44 24 08          	mov    DWORD PTR [esp+0x8],eax
 8049660:	c7 44 24 04 0c 00 00 	mov    DWORD PTR [esp+0x4],0xc
 8049667:	00 
 8049668:	8d 81 4c fc ff ff    	lea    eax,[ecx-0x3b4]
 804966e:	89 04 24             	mov    DWORD PTR [esp],eax
 8049671:	89 cb                	mov    ebx,ecx
 8049673:	e8 42 ed ff ff       	call   80483ba <debug_panic>
 8049678:	8d 81 5c fc ff ff    	lea    eax,[ecx-0x3a4]
 804967e:	89 44 24 10          	mov    DWORD PTR [esp+0x10],eax
 8049682:	8d 81 35 fc ff ff    	lea    eax,[ecx-0x3cb]
 8049688:	89 44 24 0c          	mov    DWORD PTR [esp+0xc],eax
 804968c:	8d 81 54 fa ff ff    	lea    eax,[ecx-0x5ac]
 8049692:	89 44 24 08          	mov    DWORD PTR [esp+0x8],eax
 8049696:	c7 44 24 04 0d 00 00 	mov    DWORD PTR [esp+0x4],0xd
 804969d:	00 
 804969e:	8d 81 4c fc ff ff    	lea    eax,[ecx-0x3b4]
 80496a4:	89 04 24             	mov    DWORD PTR [esp],eax
 80496a7:	89 cb                	mov    ebx,ecx
 80496a9:	e8 0c ed ff ff       	call   80483ba <debug_panic>

080496ae <memmove>:
 80496ae:	55                   	push   ebp
 80496af:	89 e5                	mov    ebp,esp
 80496b1:	56                   	push   esi
 80496b2:	53                   	push   ebx
 80496b3:	83 ec 20             	sub    esp,0x20
 80496b6:	e8 ee 0b 00 00       	call   804a2a9 <__x86.get_pc_thunk.si>
 80496bb:	81 c6 45 19 00 00    	add    esi,0x1945
 80496c1:	8b 45 08             	mov    eax,DWORD PTR [ebp+0x8]
 80496c4:	8b 4d 0c             	mov    ecx,DWORD PTR [ebp+0xc]
 80496c7:	8b 5d 10             	mov    ebx,DWORD PTR [ebp+0x10]
 80496ca:	85 db                	test   ebx,ebx
 80496cc:	0f 94 c2             	sete   dl
 80496cf:	85 c0                	test   eax,eax
 80496d1:	75 04                	jne    80496d7 <memmove+0x29>
 80496d3:	84 d2                	test   dl,dl
 80496d5:	74 34                	je     804970b <memmove+0x5d>
 80496d7:	85 c9                	test   ecx,ecx
 80496d9:	75 07                	jne    80496e2 <memmove+0x34>
 80496db:	84 d2                	test   dl,dl
 80496dd:	8d 76 00             	lea    esi,[esi+0x0]
 80496e0:	74 5f                	je     8049741 <memmove+0x93>
 80496e2:	39 c8                	cmp    eax,ecx
 80496e4:	0f 83 8d 00 00 00    	jae    8049777 <memmove+0xc9>
 80496ea:	85 db                	test   ebx,ebx
 80496ec:	8d 74 26 00          	lea    esi,[esi+eiz*1+0x0]
 80496f0:	74 12                	je     8049704 <memmove+0x56>
 80496f2:	8d 14 18             	lea    edx,[eax+ebx*1]
 80496f5:	41                   	inc    ecx
 80496f6:	40                   	inc    eax
 80496f7:	0f b6 59 ff          	movzx  ebx,BYTE PTR [ecx-0x1]
 80496fb:	88 58 ff             	mov    BYTE PTR [eax-0x1],bl
 80496fe:	39 d0                	cmp    eax,edx
 8049700:	75 f3                	jne    80496f5 <memmove+0x47>
 8049702:	89 d0                	mov    eax,edx
 8049704:	83 c4 20             	add    esp,0x20
 8049707:	5b                   	pop    ebx
 8049708:	5e                   	pop    esi
 8049709:	5d                   	pop    ebp
 804970a:	c3                   	ret
 804970b:	8d 86 1c fc ff ff    	lea    eax,[esi-0x3e4]
 8049711:	89 44 24 10          	mov    DWORD PTR [esp+0x10],eax
 8049715:	8d 86 35 fc ff ff    	lea    eax,[esi-0x3cb]
 804971b:	89 44 24 0c          	mov    DWORD PTR [esp+0xc],eax
 804971f:	8d 86 4c fa ff ff    	lea    eax,[esi-0x5b4]
 8049725:	89 44 24 08          	mov    DWORD PTR [esp+0x8],eax
 8049729:	c7 44 24 04 1d 00 00 	mov    DWORD PTR [esp+0x4],0x1d
 8049730:	00 
 8049731:	8d 86 4c fc ff ff    	lea    eax,[esi-0x3b4]
 8049737:	89 04 24             	mov    DWORD PTR [esp],eax
 804973a:	89 f3                	mov    ebx,esi
 804973c:	e8 79 ec ff ff       	call   80483ba <debug_panic>
 8049741:	8d 86 5c fc ff ff    	lea    eax,[esi-0x3a4]
 8049747:	89 44 24 10          	mov    DWORD PTR [esp+0x10],eax
 804974b:	8d 86 35 fc ff ff    	lea    eax,[esi-0x3cb]
 8049751:	89 44 24 0c          	mov    DWORD PTR [esp+0xc],eax
 8049755:	8d 86 4c fa ff ff    	lea    eax,[esi-0x5b4]
 804975b:	89 44 24 08          	mov    DWORD PTR [esp+0x8],eax
 804975f:	c7 44 24 04 1e 00 00 	mov    DWORD PTR [esp+0x4],0x1e
 8049766:	00 
 8049767:	8d 86 4c fc ff ff    	lea    eax,[esi-0x3b4]
 804976d:	89 04 24             	mov    DWORD PTR [esp],eax
 8049770:	89 f3                	mov    ebx,esi
 8049772:	e8 43 ec ff ff       	call   80483ba <debug_panic>
 8049777:	8d 53 ff             	lea    edx,[ebx-0x1]
 804977a:	85 db                	test   ebx,ebx
 804977c:	74 12                	je     8049790 <memmove+0xe2>
 804977e:	0f b6 1c 11          	movzx  ebx,BYTE PTR [ecx+edx*1]
 8049782:	88 1c 10             	mov    BYTE PTR [eax+edx*1],bl
 8049785:	4a                   	dec    edx
 8049786:	83 fa ff             	cmp    edx,0xffffffff
 8049789:	75 f3                	jne    804977e <memmove+0xd0>
 804978b:	e9 74 ff ff ff       	jmp    8049704 <memmove+0x56>
 8049790:	01 d8                	add    eax,ebx
 8049792:	e9 6d ff ff ff       	jmp    8049704 <memmove+0x56>

08049797 <memcmp>:
 8049797:	55                   	push   ebp
 8049798:	89 e5                	mov    ebp,esp
 804979a:	56                   	push   esi
 804979b:	53                   	push   ebx
 804979c:	83 ec 20             	sub    esp,0x20
 804979f:	e8 05 0b 00 00       	call   804a2a9 <__x86.get_pc_thunk.si>
 80497a4:	81 c6 5c 18 00 00    	add    esi,0x185c
 80497aa:	8b 45 08             	mov    eax,DWORD PTR [ebp+0x8]
 80497ad:	8b 55 0c             	mov    edx,DWORD PTR [ebp+0xc]
 80497b0:	8b 4d 10             	mov    ecx,DWORD PTR [ebp+0x10]
 80497b3:	85 c9                	test   ecx,ecx
 80497b5:	0f 94 c3             	sete   bl
 80497b8:	85 c0                	test   eax,eax
 80497ba:	75 04                	jne    80497c0 <memcmp+0x29>
 80497bc:	84 db                	test   bl,bl
 80497be:	74 2a                	je     80497ea <memcmp+0x53>
 80497c0:	85 d2                	test   edx,edx
 80497c2:	75 04                	jne    80497c8 <memcmp+0x31>
 80497c4:	84 db                	test   bl,bl
 80497c6:	74 5f                	je     8049827 <memcmp+0x90>
 80497c8:	8d 34 08             	lea    esi,[eax+ecx*1]
 80497cb:	85 c9                	test   ecx,ecx
 80497cd:	74 51                	je     8049820 <memcmp+0x89>
 80497cf:	0f b6 08             	movzx  ecx,BYTE PTR [eax]
 80497d2:	0f b6 1a             	movzx  ebx,BYTE PTR [edx]
 80497d5:	38 d9                	cmp    cl,bl
 80497d7:	0f 85 80 00 00 00    	jne    804985d <memcmp+0xc6>
 80497dd:	40                   	inc    eax
 80497de:	42                   	inc    edx
 80497df:	39 c6                	cmp    esi,eax
 80497e1:	75 ec                	jne    80497cf <memcmp+0x38>
 80497e3:	b8 00 00 00 00       	mov    eax,0x0
 80497e8:	eb 7b                	jmp    8049865 <memcmp+0xce>
 80497ea:	8d 86 75 fc ff ff    	lea    eax,[esi-0x38b]
 80497f0:	89 44 24 10          	mov    DWORD PTR [esp+0x10],eax
 80497f4:	8d 86 35 fc ff ff    	lea    eax,[esi-0x3cb]
 80497fa:	89 44 24 0c          	mov    DWORD PTR [esp+0xc],eax
 80497fe:	8d 86 44 fa ff ff    	lea    eax,[esi-0x5bc]
 8049804:	89 44 24 08          	mov    DWORD PTR [esp+0x8],eax
 8049808:	c7 44 24 04 3a 00 00 	mov    DWORD PTR [esp+0x4],0x3a
 804980f:	00 
 8049810:	8d 86 4c fc ff ff    	lea    eax,[esi-0x3b4]
 8049816:	89 04 24             	mov    DWORD PTR [esp],eax
 8049819:	89 f3                	mov    ebx,esi
 804981b:	e8 9a eb ff ff       	call   80483ba <debug_panic>
 8049820:	b8 00 00 00 00       	mov    eax,0x0
 8049825:	eb 3e                	jmp    8049865 <memcmp+0xce>
 8049827:	8d 86 8c fc ff ff    	lea    eax,[esi-0x374]
 804982d:	89 44 24 10          	mov    DWORD PTR [esp+0x10],eax
 8049831:	8d 86 35 fc ff ff    	lea    eax,[esi-0x3cb]
 8049837:	89 44 24 0c          	mov    DWORD PTR [esp+0xc],eax
 804983b:	8d 86 44 fa ff ff    	lea    eax,[esi-0x5bc]
 8049841:	89 44 24 08          	mov    DWORD PTR [esp+0x8],eax
 8049845:	c7 44 24 04 3b 00 00 	mov    DWORD PTR [esp+0x4],0x3b
 804984c:	00 
 804984d:	8d 86 4c fc ff ff    	lea    eax,[esi-0x3b4]
 8049853:	89 04 24             	mov    DWORD PTR [esp],eax
 8049856:	89 f3                	mov    ebx,esi
 8049858:	e8 5d eb ff ff       	call   80483ba <debug_panic>
 804985d:	38 cb                	cmp    bl,cl
 804985f:	19 c0                	sbb    eax,eax
 8049861:	83 e0 02             	and    eax,0x2
 8049864:	48                   	dec    eax
 8049865:	83 c4 20             	add    esp,0x20
 8049868:	5b                   	pop    ebx
 8049869:	5e                   	pop    esi
 804986a:	5d                   	pop    ebp
 804986b:	c3                   	ret

0804986c <strcmp>:
 804986c:	55                   	push   ebp
 804986d:	89 e5                	mov    ebp,esp
 804986f:	83 ec 28             	sub    esp,0x28
 8049872:	89 5d fc             	mov    DWORD PTR [ebp-0x4],ebx
 8049875:	e8 1f 0a 00 00       	call   804a299 <__x86.get_pc_thunk.bx>
 804987a:	81 c3 86 17 00 00    	add    ebx,0x1786
 8049880:	8b 4d 08             	mov    ecx,DWORD PTR [ebp+0x8]
 8049883:	8b 55 0c             	mov    edx,DWORD PTR [ebp+0xc]
 8049886:	85 c9                	test   ecx,ecx
 8049888:	74 35                	je     80498bf <strcmp+0x53>
 804988a:	85 d2                	test   edx,edx
 804988c:	74 65                	je     80498f3 <strcmp+0x87>
 804988e:	0f b6 01             	movzx  eax,BYTE PTR [ecx]
 8049891:	84 c0                	test   al,al
 8049893:	74 0d                	je     80498a2 <strcmp+0x36>
 8049895:	38 02                	cmp    BYTE PTR [edx],al
 8049897:	75 09                	jne    80498a2 <strcmp+0x36>
 8049899:	41                   	inc    ecx
 804989a:	42                   	inc    edx
 804989b:	0f b6 01             	movzx  eax,BYTE PTR [ecx]
 804989e:	84 c0                	test   al,al
 80498a0:	75 f3                	jne    8049895 <strcmp+0x29>
 80498a2:	0f b6 0a             	movzx  ecx,BYTE PTR [edx]
 80498a5:	ba ff ff ff ff       	mov    edx,0xffffffff
 80498aa:	38 c8                	cmp    al,cl
 80498ac:	72 08                	jb     80498b6 <strcmp+0x4a>
 80498ae:	38 c1                	cmp    cl,al
 80498b0:	0f 92 c2             	setb   dl
 80498b3:	0f b6 d2             	movzx  edx,dl
 80498b6:	89 d0                	mov    eax,edx
 80498b8:	8b 5d fc             	mov    ebx,DWORD PTR [ebp-0x4]
 80498bb:	89 ec                	mov    esp,ebp
 80498bd:	5d                   	pop    ebp
 80498be:	c3                   	ret
 80498bf:	8d 83 a3 fc ff ff    	lea    eax,[ebx-0x35d]
 80498c5:	89 44 24 10          	mov    DWORD PTR [esp+0x10],eax
 80498c9:	8d 83 35 fc ff ff    	lea    eax,[ebx-0x3cb]
 80498cf:	89 44 24 0c          	mov    DWORD PTR [esp+0xc],eax
 80498d3:	8d 83 3c fa ff ff    	lea    eax,[ebx-0x5c4]
 80498d9:	89 44 24 08          	mov    DWORD PTR [esp+0x8],eax
 80498dd:	c7 44 24 04 4e 00 00 	mov    DWORD PTR [esp+0x4],0x4e
 80498e4:	00 
 80498e5:	8d 83 4c fc ff ff    	lea    eax,[ebx-0x3b4]
 80498eb:	89 04 24             	mov    DWORD PTR [esp],eax
 80498ee:	e8 c7 ea ff ff       	call   80483ba <debug_panic>
 80498f3:	8d 83 ad fc ff ff    	lea    eax,[ebx-0x353]
 80498f9:	89 44 24 10          	mov    DWORD PTR [esp+0x10],eax
 80498fd:	8d 83 35 fc ff ff    	lea    eax,[ebx-0x3cb]
 8049903:	89 44 24 0c          	mov    DWORD PTR [esp+0xc],eax
 8049907:	8d 83 3c fa ff ff    	lea    eax,[ebx-0x5c4]
 804990d:	89 44 24 08          	mov    DWORD PTR [esp+0x8],eax
 8049911:	c7 44 24 04 4f 00 00 	mov    DWORD PTR [esp+0x4],0x4f
 8049918:	00 
 8049919:	8d 83 4c fc ff ff    	lea    eax,[ebx-0x3b4]
 804991f:	89 04 24             	mov    DWORD PTR [esp],eax
 8049922:	e8 93 ea ff ff       	call   80483ba <debug_panic>

08049927 <memchr>:
 8049927:	55                   	push   ebp
 8049928:	89 e5                	mov    ebp,esp
 804992a:	83 ec 28             	sub    esp,0x28
 804992d:	89 5d fc             	mov    DWORD PTR [ebp-0x4],ebx
 8049930:	e8 70 09 00 00       	call   804a2a5 <__x86.get_pc_thunk.cx>
 8049935:	81 c1 cb 16 00 00    	add    ecx,0x16cb
 804993b:	8b 45 08             	mov    eax,DWORD PTR [ebp+0x8]
 804993e:	8b 5d 10             	mov    ebx,DWORD PTR [ebp+0x10]
 8049941:	0f b6 55 0c          	movzx  edx,BYTE PTR [ebp+0xc]
 8049945:	85 c0                	test   eax,eax
 8049947:	75 04                	jne    804994d <memchr+0x26>
 8049949:	85 db                	test   ebx,ebx
 804994b:	75 23                	jne    8049970 <memchr+0x49>
 804994d:	8d 0c 18             	lea    ecx,[eax+ebx*1]
 8049950:	85 db                	test   ebx,ebx
 8049952:	74 15                	je     8049969 <memchr+0x42>
 8049954:	38 10                	cmp    BYTE PTR [eax],dl
 8049956:	74 0a                	je     8049962 <memchr+0x3b>
 8049958:	40                   	inc    eax
 8049959:	39 c1                	cmp    ecx,eax
 804995b:	75 f7                	jne    8049954 <memchr+0x2d>
 804995d:	b8 00 00 00 00       	mov    eax,0x0
 8049962:	8b 5d fc             	mov    ebx,DWORD PTR [ebp-0x4]
 8049965:	89 ec                	mov    esp,ebp
 8049967:	5d                   	pop    ebp
 8049968:	c3                   	ret
 8049969:	b8 00 00 00 00       	mov    eax,0x0
 804996e:	eb f2                	jmp    8049962 <memchr+0x3b>
 8049970:	8d 81 b7 fc ff ff    	lea    eax,[ecx-0x349]
 8049976:	89 44 24 10          	mov    DWORD PTR [esp+0x10],eax
 804997a:	8d 81 35 fc ff ff    	lea    eax,[ecx-0x3cb]
 8049980:	89 44 24 0c          	mov    DWORD PTR [esp+0xc],eax
 8049984:	8d 81 34 fa ff ff    	lea    eax,[ecx-0x5cc]
 804998a:	89 44 24 08          	mov    DWORD PTR [esp+0x8],eax
 804998e:	c7 44 24 04 63 00 00 	mov    DWORD PTR [esp+0x4],0x63
 8049995:	00 
 8049996:	8d 81 4c fc ff ff    	lea    eax,[ecx-0x3b4]
 804999c:	89 04 24             	mov    DWORD PTR [esp],eax
 804999f:	89 cb                	mov    ebx,ecx
 80499a1:	e8 14 ea ff ff       	call   80483ba <debug_panic>

080499a6 <strchr>:
 80499a6:	55                   	push   ebp
 80499a7:	89 e5                	mov    ebp,esp
 80499a9:	83 ec 28             	sub    esp,0x28
 80499ac:	89 5d fc             	mov    DWORD PTR [ebp-0x4],ebx
 80499af:	e8 e5 08 00 00       	call   804a299 <__x86.get_pc_thunk.bx>
 80499b4:	81 c3 4c 16 00 00    	add    ebx,0x164c
 80499ba:	8b 45 08             	mov    eax,DWORD PTR [ebp+0x8]
 80499bd:	0f b6 4d 0c          	movzx  ecx,BYTE PTR [ebp+0xc]
 80499c1:	85 c0                	test   eax,eax
 80499c3:	74 15                	je     80499da <strchr+0x34>
 80499c5:	0f b6 10             	movzx  edx,BYTE PTR [eax]
 80499c8:	38 d1                	cmp    cl,dl
 80499ca:	74 47                	je     8049a13 <strchr+0x6d>
 80499cc:	84 d2                	test   dl,dl
 80499ce:	74 3e                	je     8049a0e <strchr+0x68>
 80499d0:	40                   	inc    eax
 80499d1:	0f b6 10             	movzx  edx,BYTE PTR [eax]
 80499d4:	38 ca                	cmp    dl,cl
 80499d6:	75 f4                	jne    80499cc <strchr+0x26>
 80499d8:	eb 39                	jmp    8049a13 <strchr+0x6d>
 80499da:	8d 83 d2 fc ff ff    	lea    eax,[ebx-0x32e]
 80499e0:	89 44 24 10          	mov    DWORD PTR [esp+0x10],eax
 80499e4:	8d 83 35 fc ff ff    	lea    eax,[ebx-0x3cb]
 80499ea:	89 44 24 0c          	mov    DWORD PTR [esp+0xc],eax
 80499ee:	8d 83 2c fa ff ff    	lea    eax,[ebx-0x5d4]
 80499f4:	89 44 24 08          	mov    DWORD PTR [esp+0x8],eax
 80499f8:	c7 44 24 04 75 00 00 	mov    DWORD PTR [esp+0x4],0x75
 80499ff:	00 
 8049a00:	8d 83 4c fc ff ff    	lea    eax,[ebx-0x3b4]
 8049a06:	89 04 24             	mov    DWORD PTR [esp],eax
 8049a09:	e8 ac e9 ff ff       	call   80483ba <debug_panic>
 8049a0e:	b8 00 00 00 00       	mov    eax,0x0
 8049a13:	8b 5d fc             	mov    ebx,DWORD PTR [ebp-0x4]
 8049a16:	89 ec                	mov    esp,ebp
 8049a18:	5d                   	pop    ebp
 8049a19:	c3                   	ret

08049a1a <strcspn>:
 8049a1a:	55                   	push   ebp
 8049a1b:	89 e5                	mov    ebp,esp
 8049a1d:	57                   	push   edi
 8049a1e:	56                   	push   esi
 8049a1f:	53                   	push   ebx
 8049a20:	83 ec 1c             	sub    esp,0x1c
 8049a23:	8b 75 08             	mov    esi,DWORD PTR [ebp+0x8]
 8049a26:	8b 7d 0c             	mov    edi,DWORD PTR [ebp+0xc]
 8049a29:	0f b6 06             	movzx  eax,BYTE PTR [esi]
 8049a2c:	84 c0                	test   al,al
 8049a2e:	74 2b                	je     8049a5b <strcspn+0x41>
 8049a30:	bb 00 00 00 00       	mov    ebx,0x0
 8049a35:	0f be c0             	movsx  eax,al
 8049a38:	89 44 24 04          	mov    DWORD PTR [esp+0x4],eax
 8049a3c:	89 3c 24             	mov    DWORD PTR [esp],edi
 8049a3f:	e8 62 ff ff ff       	call   80499a6 <strchr>
 8049a44:	85 c0                	test   eax,eax
 8049a46:	75 09                	jne    8049a51 <strcspn+0x37>
 8049a48:	43                   	inc    ebx
 8049a49:	0f b6 04 1e          	movzx  eax,BYTE PTR [esi+ebx*1]
 8049a4d:	84 c0                	test   al,al
 8049a4f:	75 e4                	jne    8049a35 <strcspn+0x1b>
 8049a51:	89 d8                	mov    eax,ebx
 8049a53:	83 c4 1c             	add    esp,0x1c
 8049a56:	5b                   	pop    ebx
 8049a57:	5e                   	pop    esi
 8049a58:	5f                   	pop    edi
 8049a59:	5d                   	pop    ebp
 8049a5a:	c3                   	ret
 8049a5b:	bb 00 00 00 00       	mov    ebx,0x0
 8049a60:	eb ef                	jmp    8049a51 <strcspn+0x37>

08049a62 <strpbrk>:
 8049a62:	55                   	push   ebp
 8049a63:	89 e5                	mov    ebp,esp
 8049a65:	56                   	push   esi
 8049a66:	53                   	push   ebx
 8049a67:	83 ec 10             	sub    esp,0x10
 8049a6a:	8b 5d 08             	mov    ebx,DWORD PTR [ebp+0x8]
 8049a6d:	8b 75 0c             	mov    esi,DWORD PTR [ebp+0xc]
 8049a70:	0f b6 13             	movzx  edx,BYTE PTR [ebx]
 8049a73:	84 d2                	test   dl,dl
 8049a75:	74 1d                	je     8049a94 <strpbrk+0x32>
 8049a77:	0f be d2             	movsx  edx,dl
 8049a7a:	89 54 24 04          	mov    DWORD PTR [esp+0x4],edx
 8049a7e:	89 34 24             	mov    DWORD PTR [esp],esi
 8049a81:	e8 20 ff ff ff       	call   80499a6 <strchr>
 8049a86:	85 c0                	test   eax,eax
 8049a88:	75 11                	jne    8049a9b <strpbrk+0x39>
 8049a8a:	43                   	inc    ebx
 8049a8b:	0f b6 13             	movzx  edx,BYTE PTR [ebx]
 8049a8e:	84 d2                	test   dl,dl
 8049a90:	75 e5                	jne    8049a77 <strpbrk+0x15>
 8049a92:	eb 09                	jmp    8049a9d <strpbrk+0x3b>
 8049a94:	b8 00 00 00 00       	mov    eax,0x0
 8049a99:	eb 02                	jmp    8049a9d <strpbrk+0x3b>
 8049a9b:	89 d8                	mov    eax,ebx
 8049a9d:	83 c4 10             	add    esp,0x10
 8049aa0:	5b                   	pop    ebx
 8049aa1:	5e                   	pop    esi
 8049aa2:	5d                   	pop    ebp
 8049aa3:	c3                   	ret

08049aa4 <strrchr>:
 8049aa4:	55                   	push   ebp
 8049aa5:	89 e5                	mov    ebp,esp
 8049aa7:	53                   	push   ebx
 8049aa8:	8b 45 08             	mov    eax,DWORD PTR [ebp+0x8]
 8049aab:	0f b6 5d 0c          	movzx  ebx,BYTE PTR [ebp+0xc]
 8049aaf:	0f b6 10             	movzx  edx,BYTE PTR [eax]
 8049ab2:	84 d2                	test   dl,dl
 8049ab4:	74 17                	je     8049acd <strrchr+0x29>
 8049ab6:	b9 00 00 00 00       	mov    ecx,0x0
 8049abb:	38 d3                	cmp    bl,dl
 8049abd:	0f 44 c8             	cmove  ecx,eax
 8049ac0:	40                   	inc    eax
 8049ac1:	0f b6 10             	movzx  edx,BYTE PTR [eax]
 8049ac4:	84 d2                	test   dl,dl
 8049ac6:	75 f3                	jne    8049abb <strrchr+0x17>
 8049ac8:	89 c8                	mov    eax,ecx
 8049aca:	5b                   	pop    ebx
 8049acb:	5d                   	pop    ebp
 8049acc:	c3                   	ret
 8049acd:	b9 00 00 00 00       	mov    ecx,0x0
 8049ad2:	eb f4                	jmp    8049ac8 <strrchr+0x24>

08049ad4 <strspn>:
 8049ad4:	55                   	push   ebp
 8049ad5:	89 e5                	mov    ebp,esp
 8049ad7:	57                   	push   edi
 8049ad8:	56                   	push   esi
 8049ad9:	53                   	push   ebx
 8049ada:	83 ec 1c             	sub    esp,0x1c
 8049add:	8b 75 08             	mov    esi,DWORD PTR [ebp+0x8]
 8049ae0:	8b 7d 0c             	mov    edi,DWORD PTR [ebp+0xc]
 8049ae3:	0f b6 06             	movzx  eax,BYTE PTR [esi]
 8049ae6:	84 c0                	test   al,al
 8049ae8:	74 2b                	je     8049b15 <strspn+0x41>
 8049aea:	bb 00 00 00 00       	mov    ebx,0x0
 8049aef:	0f be c0             	movsx  eax,al
 8049af2:	89 44 24 04          	mov    DWORD PTR [esp+0x4],eax
 8049af6:	89 3c 24             	mov    DWORD PTR [esp],edi
 8049af9:	e8 a8 fe ff ff       	call   80499a6 <strchr>
 8049afe:	85 c0                	test   eax,eax
 8049b00:	74 09                	je     8049b0b <strspn+0x37>
 8049b02:	43                   	inc    ebx
 8049b03:	0f b6 04 1e          	movzx  eax,BYTE PTR [esi+ebx*1]
 8049b07:	84 c0                	test   al,al
 8049b09:	75 e4                	jne    8049aef <strspn+0x1b>
 8049b0b:	89 d8                	mov    eax,ebx
 8049b0d:	83 c4 1c             	add    esp,0x1c
 8049b10:	5b                   	pop    ebx
 8049b11:	5e                   	pop    esi
 8049b12:	5f                   	pop    edi
 8049b13:	5d                   	pop    ebp
 8049b14:	c3                   	ret
 8049b15:	bb 00 00 00 00       	mov    ebx,0x0
 8049b1a:	eb ef                	jmp    8049b0b <strspn+0x37>

08049b1c <strtok_r>:
 8049b1c:	55                   	push   ebp
 8049b1d:	89 e5                	mov    ebp,esp
 8049b1f:	57                   	push   edi
 8049b20:	56                   	push   esi
 8049b21:	53                   	push   ebx
 8049b22:	83 ec 3c             	sub    esp,0x3c
 8049b25:	e8 6f 07 00 00       	call   804a299 <__x86.get_pc_thunk.bx>
 8049b2a:	81 c3 d6 14 00 00    	add    ebx,0x14d6
 8049b30:	8b 75 08             	mov    esi,DWORD PTR [ebp+0x8]
 8049b33:	8b 7d 0c             	mov    edi,DWORD PTR [ebp+0xc]
 8049b36:	85 ff                	test   edi,edi
 8049b38:	74 4f                	je     8049b89 <strtok_r+0x6d>
 8049b3a:	83 7d 10 00          	cmp    DWORD PTR [ebp+0x10],0x0
 8049b3e:	74 7d                	je     8049bbd <strtok_r+0xa1>
 8049b40:	85 f6                	test   esi,esi
 8049b42:	0f 85 aa 00 00 00    	jne    8049bf2 <strtok_r+0xd6>
 8049b48:	8b 45 10             	mov    eax,DWORD PTR [ebp+0x10]
 8049b4b:	8b 30                	mov    esi,DWORD PTR [eax]
 8049b4d:	85 f6                	test   esi,esi
 8049b4f:	0f 85 9d 00 00 00    	jne    8049bf2 <strtok_r+0xd6>
 8049b55:	8d 83 ea fc ff ff    	lea    eax,[ebx-0x316]
 8049b5b:	89 44 24 10          	mov    DWORD PTR [esp+0x10],eax
 8049b5f:	8d 83 35 fc ff ff    	lea    eax,[ebx-0x3cb]
 8049b65:	89 44 24 0c          	mov    DWORD PTR [esp+0xc],eax
 8049b69:	8d 83 20 fa ff ff    	lea    eax,[ebx-0x5e0]
 8049b6f:	89 44 24 08          	mov    DWORD PTR [esp+0x8],eax
 8049b73:	c7 44 24 04 f6 00 00 	mov    DWORD PTR [esp+0x4],0xf6
 8049b7a:	00 
 8049b7b:	8d 83 4c fc ff ff    	lea    eax,[ebx-0x3b4]
 8049b81:	89 04 24             	mov    DWORD PTR [esp],eax
 8049b84:	e8 31 e8 ff ff       	call   80483ba <debug_panic>
 8049b89:	8d 83 e1 fc ff ff    	lea    eax,[ebx-0x31f]
 8049b8f:	89 44 24 10          	mov    DWORD PTR [esp+0x10],eax
 8049b93:	8d 83 35 fc ff ff    	lea    eax,[ebx-0x3cb]
 8049b99:	89 44 24 0c          	mov    DWORD PTR [esp+0xc],eax
 8049b9d:	8d 83 20 fa ff ff    	lea    eax,[ebx-0x5e0]
 8049ba3:	89 44 24 08          	mov    DWORD PTR [esp+0x8],eax
 8049ba7:	c7 44 24 04 ef 00 00 	mov    DWORD PTR [esp+0x4],0xef
 8049bae:	00 
 8049baf:	8d 83 4c fc ff ff    	lea    eax,[ebx-0x3b4]
 8049bb5:	89 04 24             	mov    DWORD PTR [esp],eax
 8049bb8:	e8 fd e7 ff ff       	call   80483ba <debug_panic>
 8049bbd:	8d 83 f4 fc ff ff    	lea    eax,[ebx-0x30c]
 8049bc3:	89 44 24 10          	mov    DWORD PTR [esp+0x10],eax
 8049bc7:	8d 83 35 fc ff ff    	lea    eax,[ebx-0x3cb]
 8049bcd:	89 44 24 0c          	mov    DWORD PTR [esp+0xc],eax
 8049bd1:	8d 83 20 fa ff ff    	lea    eax,[ebx-0x5e0]
 8049bd7:	89 44 24 08          	mov    DWORD PTR [esp+0x8],eax
 8049bdb:	c7 44 24 04 f0 00 00 	mov    DWORD PTR [esp+0x4],0xf0
 8049be2:	00 
 8049be3:	8d 83 4c fc ff ff    	lea    eax,[ebx-0x3b4]
 8049be9:	89 04 24             	mov    DWORD PTR [esp],eax
 8049bec:	e8 c9 e7 ff ff       	call   80483ba <debug_panic>
 8049bf1:	46                   	inc    esi
 8049bf2:	0f b6 1e             	movzx  ebx,BYTE PTR [esi]
 8049bf5:	0f be c3             	movsx  eax,bl
 8049bf8:	89 44 24 04          	mov    DWORD PTR [esp+0x4],eax
 8049bfc:	89 3c 24             	mov    DWORD PTR [esp],edi
 8049bff:	e8 a2 fd ff ff       	call   80499a6 <strchr>
 8049c04:	85 c0                	test   eax,eax
 8049c06:	74 16                	je     8049c1e <strtok_r+0x102>
 8049c08:	84 db                	test   bl,bl
 8049c0a:	75 e5                	jne    8049bf1 <strtok_r+0xd5>
 8049c0c:	b8 00 00 00 00       	mov    eax,0x0
 8049c11:	8b 55 10             	mov    edx,DWORD PTR [ebp+0x10]
 8049c14:	89 32                	mov    DWORD PTR [edx],esi
 8049c16:	83 c4 3c             	add    esp,0x3c
 8049c19:	5b                   	pop    ebx
 8049c1a:	5e                   	pop    esi
 8049c1b:	5f                   	pop    edi
 8049c1c:	5d                   	pop    ebp
 8049c1d:	c3                   	ret
 8049c1e:	89 f3                	mov    ebx,esi
 8049c20:	0f b6 03             	movzx  eax,BYTE PTR [ebx]
 8049c23:	88 45 e7             	mov    BYTE PTR [ebp-0x19],al
 8049c26:	0f be c0             	movsx  eax,al
 8049c29:	89 44 24 04          	mov    DWORD PTR [esp+0x4],eax
 8049c2d:	89 3c 24             	mov    DWORD PTR [esp],edi
 8049c30:	e8 71 fd ff ff       	call   80499a6 <strchr>
 8049c35:	85 c0                	test   eax,eax
 8049c37:	75 03                	jne    8049c3c <strtok_r+0x120>
 8049c39:	43                   	inc    ebx
 8049c3a:	eb e4                	jmp    8049c20 <strtok_r+0x104>
 8049c3c:	80 7d e7 00          	cmp    BYTE PTR [ebp-0x19],0x0
 8049c40:	74 0a                	je     8049c4c <strtok_r+0x130>
 8049c42:	c6 03 00             	mov    BYTE PTR [ebx],0x0
 8049c45:	89 f0                	mov    eax,esi
 8049c47:	8d 73 01             	lea    esi,[ebx+0x1]
 8049c4a:	eb c5                	jmp    8049c11 <strtok_r+0xf5>
 8049c4c:	89 f0                	mov    eax,esi
 8049c4e:	89 de                	mov    esi,ebx
 8049c50:	eb bf                	jmp    8049c11 <strtok_r+0xf5>

08049c52 <memset>:
 8049c52:	55                   	push   ebp
 8049c53:	89 e5                	mov    ebp,esp
 8049c55:	56                   	push   esi
 8049c56:	53                   	push   ebx
 8049c57:	83 ec 20             	sub    esp,0x20
 8049c5a:	e8 42 06 00 00       	call   804a2a1 <__x86.get_pc_thunk.ax>
 8049c5f:	05 a1 13 00 00       	add    eax,0x13a1
 8049c64:	8b 5d 08             	mov    ebx,DWORD PTR [ebp+0x8]
 8049c67:	8b 4d 0c             	mov    ecx,DWORD PTR [ebp+0xc]
 8049c6a:	8b 75 10             	mov    esi,DWORD PTR [ebp+0x10]
 8049c6d:	85 db                	test   ebx,ebx
 8049c6f:	75 04                	jne    8049c75 <memset+0x23>
 8049c71:	85 f6                	test   esi,esi
 8049c73:	75 1a                	jne    8049c8f <memset+0x3d>
 8049c75:	8d 14 33             	lea    edx,[ebx+esi*1]
 8049c78:	89 d8                	mov    eax,ebx
 8049c7a:	85 f6                	test   esi,esi
 8049c7c:	74 08                	je     8049c86 <memset+0x34>
 8049c7e:	40                   	inc    eax
 8049c7f:	88 48 ff             	mov    BYTE PTR [eax-0x1],cl
 8049c82:	39 c2                	cmp    edx,eax
 8049c84:	75 f8                	jne    8049c7e <memset+0x2c>
 8049c86:	89 d8                	mov    eax,ebx
 8049c88:	83 c4 20             	add    esp,0x20
 8049c8b:	5b                   	pop    ebx
 8049c8c:	5e                   	pop    esi
 8049c8d:	5d                   	pop    ebp
 8049c8e:	c3                   	ret
 8049c8f:	8d 90 1c fc ff ff    	lea    edx,[eax-0x3e4]
 8049c95:	89 54 24 10          	mov    DWORD PTR [esp+0x10],edx
 8049c99:	8d 90 35 fc ff ff    	lea    edx,[eax-0x3cb]
 8049c9f:	89 54 24 0c          	mov    DWORD PTR [esp+0xc],edx
 8049ca3:	8d 90 18 fa ff ff    	lea    edx,[eax-0x5e8]
 8049ca9:	89 54 24 08          	mov    DWORD PTR [esp+0x8],edx
 8049cad:	c7 44 24 04 1b 01 00 	mov    DWORD PTR [esp+0x4],0x11b
 8049cb4:	00 
 8049cb5:	8d 90 4c fc ff ff    	lea    edx,[eax-0x3b4]
 8049cbb:	89 14 24             	mov    DWORD PTR [esp],edx
 8049cbe:	89 c3                	mov    ebx,eax
 8049cc0:	e8 f5 e6 ff ff       	call   80483ba <debug_panic>

08049cc5 <strlen>:
 8049cc5:	55                   	push   ebp
 8049cc6:	89 e5                	mov    ebp,esp
 8049cc8:	83 ec 28             	sub    esp,0x28
 8049ccb:	89 5d fc             	mov    DWORD PTR [ebp-0x4],ebx
 8049cce:	e8 c6 05 00 00       	call   804a299 <__x86.get_pc_thunk.bx>
 8049cd3:	81 c3 2d 13 00 00    	add    ebx,0x132d
 8049cd9:	8b 55 08             	mov    edx,DWORD PTR [ebp+0x8]
 8049cdc:	85 d2                	test   edx,edx
 8049cde:	74 10                	je     8049cf0 <strlen+0x2b>
 8049ce0:	80 3a 00             	cmp    BYTE PTR [edx],0x0
 8049ce3:	75 3f                	jne    8049d24 <strlen+0x5f>
 8049ce5:	89 d0                	mov    eax,edx
 8049ce7:	29 d0                	sub    eax,edx
 8049ce9:	8b 5d fc             	mov    ebx,DWORD PTR [ebp-0x4]
 8049cec:	89 ec                	mov    esp,ebp
 8049cee:	5d                   	pop    ebp
 8049cef:	c3                   	ret
 8049cf0:	8d 93 d2 fc ff ff    	lea    edx,[ebx-0x32e]
 8049cf6:	89 54 24 10          	mov    DWORD PTR [esp+0x10],edx
 8049cfa:	8d 93 35 fc ff ff    	lea    edx,[ebx-0x3cb]
 8049d00:	89 54 24 0c          	mov    DWORD PTR [esp+0xc],edx
 8049d04:	8d 93 10 fa ff ff    	lea    edx,[ebx-0x5f0]
 8049d0a:	89 54 24 08          	mov    DWORD PTR [esp+0x8],edx
 8049d0e:	c7 44 24 04 29 01 00 	mov    DWORD PTR [esp+0x4],0x129
 8049d15:	00 
 8049d16:	8d 93 4c fc ff ff    	lea    edx,[ebx-0x3b4]
 8049d1c:	89 14 24             	mov    DWORD PTR [esp],edx
 8049d1f:	e8 96 e6 ff ff       	call   80483ba <debug_panic>
 8049d24:	89 d0                	mov    eax,edx
 8049d26:	40                   	inc    eax
 8049d27:	80 38 00             	cmp    BYTE PTR [eax],0x0
 8049d2a:	74 bb                	je     8049ce7 <strlen+0x22>
 8049d2c:	eb f8                	jmp    8049d26 <strlen+0x61>

08049d2e <strstr>:
 8049d2e:	55                   	push   ebp
 8049d2f:	89 e5                	mov    ebp,esp
 8049d31:	57                   	push   edi
 8049d32:	56                   	push   esi
 8049d33:	53                   	push   ebx
 8049d34:	83 ec 2c             	sub    esp,0x2c
 8049d37:	8b 45 08             	mov    eax,DWORD PTR [ebp+0x8]
 8049d3a:	89 04 24             	mov    DWORD PTR [esp],eax
 8049d3d:	e8 83 ff ff ff       	call   8049cc5 <strlen>
 8049d42:	89 c3                	mov    ebx,eax
 8049d44:	8b 45 0c             	mov    eax,DWORD PTR [ebp+0xc]
 8049d47:	89 04 24             	mov    DWORD PTR [esp],eax
 8049d4a:	e8 76 ff ff ff       	call   8049cc5 <strlen>
 8049d4f:	39 c3                	cmp    ebx,eax
 8049d51:	72 3d                	jb     8049d90 <strstr+0x62>
 8049d53:	89 c7                	mov    edi,eax
 8049d55:	29 c3                	sub    ebx,eax
 8049d57:	89 5d e4             	mov    DWORD PTR [ebp-0x1c],ebx
 8049d5a:	bb 00 00 00 00       	mov    ebx,0x0
 8049d5f:	89 de                	mov    esi,ebx
 8049d61:	03 75 08             	add    esi,DWORD PTR [ebp+0x8]
 8049d64:	89 7c 24 08          	mov    DWORD PTR [esp+0x8],edi
 8049d68:	8b 45 0c             	mov    eax,DWORD PTR [ebp+0xc]
 8049d6b:	89 44 24 04          	mov    DWORD PTR [esp+0x4],eax
 8049d6f:	89 34 24             	mov    DWORD PTR [esp],esi
 8049d72:	e8 20 fa ff ff       	call   8049797 <memcmp>
 8049d77:	85 c0                	test   eax,eax
 8049d79:	74 0b                	je     8049d86 <strstr+0x58>
 8049d7b:	43                   	inc    ebx
 8049d7c:	39 5d e4             	cmp    DWORD PTR [ebp-0x1c],ebx
 8049d7f:	73 de                	jae    8049d5f <strstr+0x31>
 8049d81:	be 00 00 00 00       	mov    esi,0x0
 8049d86:	89 f0                	mov    eax,esi
 8049d88:	83 c4 2c             	add    esp,0x2c
 8049d8b:	5b                   	pop    ebx
 8049d8c:	5e                   	pop    esi
 8049d8d:	5f                   	pop    edi
 8049d8e:	5d                   	pop    ebp
 8049d8f:	c3                   	ret
 8049d90:	be 00 00 00 00       	mov    esi,0x0
 8049d95:	eb ef                	jmp    8049d86 <strstr+0x58>

08049d97 <strnlen>:
 8049d97:	55                   	push   ebp
 8049d98:	89 e5                	mov    ebp,esp
 8049d9a:	8b 55 08             	mov    edx,DWORD PTR [ebp+0x8]
 8049d9d:	80 3a 00             	cmp    BYTE PTR [edx],0x0
 8049da0:	74 06                	je     8049da8 <strnlen+0x11>
 8049da2:	83 7d 0c 00          	cmp    DWORD PTR [ebp+0xc],0x0
 8049da6:	75 07                	jne    8049daf <strnlen+0x18>
 8049da8:	b8 00 00 00 00       	mov    eax,0x0
 8049dad:	5d                   	pop    ebp
 8049dae:	c3                   	ret
 8049daf:	b8 00 00 00 00       	mov    eax,0x0
 8049db4:	40                   	inc    eax
 8049db5:	80 3c 02 00          	cmp    BYTE PTR [edx+eax*1],0x0
 8049db9:	74 f2                	je     8049dad <strnlen+0x16>
 8049dbb:	3b 45 0c             	cmp    eax,DWORD PTR [ebp+0xc]
 8049dbe:	73 ed                	jae    8049dad <strnlen+0x16>
 8049dc0:	eb f2                	jmp    8049db4 <strnlen+0x1d>

08049dc2 <strlcpy>:
 8049dc2:	55                   	push   ebp
 8049dc3:	89 e5                	mov    ebp,esp
 8049dc5:	83 ec 38             	sub    esp,0x38
 8049dc8:	89 5d f4             	mov    DWORD PTR [ebp-0xc],ebx
 8049dcb:	89 75 f8             	mov    DWORD PTR [ebp-0x8],esi
 8049dce:	89 7d fc             	mov    DWORD PTR [ebp-0x4],edi
 8049dd1:	e8 c3 04 00 00       	call   804a299 <__x86.get_pc_thunk.bx>
 8049dd6:	81 c3 2a 12 00 00    	add    ebx,0x122a
 8049ddc:	8b 7d 0c             	mov    edi,DWORD PTR [ebp+0xc]
 8049ddf:	8b 75 10             	mov    esi,DWORD PTR [ebp+0x10]
 8049de2:	83 7d 08 00          	cmp    DWORD PTR [ebp+0x8],0x0
 8049de6:	74 21                	je     8049e09 <strlcpy+0x47>
 8049de8:	85 ff                	test   edi,edi
 8049dea:	74 51                	je     8049e3d <strlcpy+0x7b>
 8049dec:	89 3c 24             	mov    DWORD PTR [esp],edi
 8049def:	e8 d1 fe ff ff       	call   8049cc5 <strlen>
 8049df4:	89 c3                	mov    ebx,eax
 8049df6:	85 f6                	test   esi,esi
 8049df8:	75 77                	jne    8049e71 <strlcpy+0xaf>
 8049dfa:	89 d8                	mov    eax,ebx
 8049dfc:	8b 5d f4             	mov    ebx,DWORD PTR [ebp-0xc]
 8049dff:	8b 75 f8             	mov    esi,DWORD PTR [ebp-0x8]
 8049e02:	8b 7d fc             	mov    edi,DWORD PTR [ebp-0x4]
 8049e05:	89 ec                	mov    esp,ebp
 8049e07:	5d                   	pop    ebp
 8049e08:	c3                   	ret
 8049e09:	8d 83 05 fd ff ff    	lea    eax,[ebx-0x2fb]
 8049e0f:	89 44 24 10          	mov    DWORD PTR [esp+0x10],eax
 8049e13:	8d 83 35 fc ff ff    	lea    eax,[ebx-0x3cb]
 8049e19:	89 44 24 0c          	mov    DWORD PTR [esp+0xc],eax
 8049e1d:	8d 83 08 fa ff ff    	lea    eax,[ebx-0x5f8]
 8049e23:	89 44 24 08          	mov    DWORD PTR [esp+0x8],eax
 8049e27:	c7 44 24 04 4a 01 00 	mov    DWORD PTR [esp+0x4],0x14a
 8049e2e:	00 
 8049e2f:	8d 83 4c fc ff ff    	lea    eax,[ebx-0x3b4]
 8049e35:	89 04 24             	mov    DWORD PTR [esp],eax
 8049e38:	e8 7d e5 ff ff       	call   80483ba <debug_panic>
 8049e3d:	8d 83 11 fd ff ff    	lea    eax,[ebx-0x2ef]
 8049e43:	89 44 24 10          	mov    DWORD PTR [esp+0x10],eax
 8049e47:	8d 83 35 fc ff ff    	lea    eax,[ebx-0x3cb]
 8049e4d:	89 44 24 0c          	mov    DWORD PTR [esp+0xc],eax
 8049e51:	8d 83 08 fa ff ff    	lea    eax,[ebx-0x5f8]
 8049e57:	89 44 24 08          	mov    DWORD PTR [esp+0x8],eax
 8049e5b:	c7 44 24 04 4b 01 00 	mov    DWORD PTR [esp+0x4],0x14b
 8049e62:	00 
 8049e63:	8d 83 4c fc ff ff    	lea    eax,[ebx-0x3b4]
 8049e69:	89 04 24             	mov    DWORD PTR [esp],eax
 8049e6c:	e8 49 e5 ff ff       	call   80483ba <debug_panic>
 8049e71:	4e                   	dec    esi
 8049e72:	39 c6                	cmp    esi,eax
 8049e74:	0f 47 f0             	cmova  esi,eax
 8049e77:	89 74 24 08          	mov    DWORD PTR [esp+0x8],esi
 8049e7b:	89 7c 24 04          	mov    DWORD PTR [esp+0x4],edi
 8049e7f:	8b 45 08             	mov    eax,DWORD PTR [ebp+0x8]
 8049e82:	89 04 24             	mov    DWORD PTR [esp],eax
 8049e85:	e8 66 f7 ff ff       	call   80495f0 <memcpy>
 8049e8a:	8b 45 08             	mov    eax,DWORD PTR [ebp+0x8]
 8049e8d:	c6 04 30 00          	mov    BYTE PTR [eax+esi*1],0x0
 8049e91:	e9 64 ff ff ff       	jmp    8049dfa <strlcpy+0x38>

08049e96 <strlcat>:
 8049e96:	55                   	push   ebp
 8049e97:	89 e5                	mov    ebp,esp
 8049e99:	83 ec 48             	sub    esp,0x48
 8049e9c:	89 5d f4             	mov    DWORD PTR [ebp-0xc],ebx
 8049e9f:	89 75 f8             	mov    DWORD PTR [ebp-0x8],esi
 8049ea2:	89 7d fc             	mov    DWORD PTR [ebp-0x4],edi
 8049ea5:	e8 ef 03 00 00       	call   804a299 <__x86.get_pc_thunk.bx>
 8049eaa:	81 c3 56 11 00 00    	add    ebx,0x1156
 8049eb0:	8b 7d 08             	mov    edi,DWORD PTR [ebp+0x8]
 8049eb3:	85 ff                	test   edi,edi
 8049eb5:	74 32                	je     8049ee9 <strlcat+0x53>
 8049eb7:	83 7d 0c 00          	cmp    DWORD PTR [ebp+0xc],0x0
 8049ebb:	74 60                	je     8049f1d <strlcat+0x87>
 8049ebd:	8b 45 0c             	mov    eax,DWORD PTR [ebp+0xc]
 8049ec0:	89 04 24             	mov    DWORD PTR [esp],eax
 8049ec3:	e8 fd fd ff ff       	call   8049cc5 <strlen>
 8049ec8:	89 c3                	mov    ebx,eax
 8049eca:	89 3c 24             	mov    DWORD PTR [esp],edi
 8049ecd:	e8 f3 fd ff ff       	call   8049cc5 <strlen>
 8049ed2:	89 c6                	mov    esi,eax
 8049ed4:	3b 45 10             	cmp    eax,DWORD PTR [ebp+0x10]
 8049ed7:	72 78                	jb     8049f51 <strlcat+0xbb>
 8049ed9:	8d 04 33             	lea    eax,[ebx+esi*1]
 8049edc:	8b 5d f4             	mov    ebx,DWORD PTR [ebp-0xc]
 8049edf:	8b 75 f8             	mov    esi,DWORD PTR [ebp-0x8]
 8049ee2:	8b 7d fc             	mov    edi,DWORD PTR [ebp-0x4]
 8049ee5:	89 ec                	mov    esp,ebp
 8049ee7:	5d                   	pop    ebp
 8049ee8:	c3                   	ret
 8049ee9:	8d 83 05 fd ff ff    	lea    eax,[ebx-0x2fb]
 8049eef:	89 44 24 10          	mov    DWORD PTR [esp+0x10],eax
 8049ef3:	8d 83 35 fc ff ff    	lea    eax,[ebx-0x3cb]
 8049ef9:	89 44 24 0c          	mov    DWORD PTR [esp+0xc],eax
 8049efd:	8d 83 00 fa ff ff    	lea    eax,[ebx-0x600]
 8049f03:	89 44 24 08          	mov    DWORD PTR [esp+0x8],eax
 8049f07:	c7 44 24 04 68 01 00 	mov    DWORD PTR [esp+0x4],0x168
 8049f0e:	00 
 8049f0f:	8d 83 4c fc ff ff    	lea    eax,[ebx-0x3b4]
 8049f15:	89 04 24             	mov    DWORD PTR [esp],eax
 8049f18:	e8 9d e4 ff ff       	call   80483ba <debug_panic>
 8049f1d:	8d 83 11 fd ff ff    	lea    eax,[ebx-0x2ef]
 8049f23:	89 44 24 10          	mov    DWORD PTR [esp+0x10],eax
 8049f27:	8d 83 35 fc ff ff    	lea    eax,[ebx-0x3cb]
 8049f2d:	89 44 24 0c          	mov    DWORD PTR [esp+0xc],eax
 8049f31:	8d 83 00 fa ff ff    	lea    eax,[ebx-0x600]
 8049f37:	89 44 24 08          	mov    DWORD PTR [esp+0x8],eax
 8049f3b:	c7 44 24 04 69 01 00 	mov    DWORD PTR [esp+0x4],0x169
 8049f42:	00 
 8049f43:	8d 83 4c fc ff ff    	lea    eax,[ebx-0x3b4]
 8049f49:	89 04 24             	mov    DWORD PTR [esp],eax
 8049f4c:	e8 69 e4 ff ff       	call   80483ba <debug_panic>
 8049f51:	8b 45 10             	mov    eax,DWORD PTR [ebp+0x10]
 8049f54:	48                   	dec    eax
 8049f55:	29 f0                	sub    eax,esi
 8049f57:	39 d8                	cmp    eax,ebx
 8049f59:	0f 47 c3             	cmova  eax,ebx
 8049f5c:	89 45 e4             	mov    DWORD PTR [ebp-0x1c],eax
 8049f5f:	89 44 24 08          	mov    DWORD PTR [esp+0x8],eax
 8049f63:	8b 55 0c             	mov    edx,DWORD PTR [ebp+0xc]
 8049f66:	89 54 24 04          	mov    DWORD PTR [esp+0x4],edx
 8049f6a:	8d 04 37             	lea    eax,[edi+esi*1]
 8049f6d:	89 04 24             	mov    DWORD PTR [esp],eax
 8049f70:	e8 7b f6 ff ff       	call   80495f0 <memcpy>
 8049f75:	8b 45 e4             	mov    eax,DWORD PTR [ebp-0x1c]
 8049f78:	01 c7                	add    edi,eax
 8049f7a:	c6 04 37 00          	mov    BYTE PTR [edi+esi*1],0x0
 8049f7e:	e9 56 ff ff ff       	jmp    8049ed9 <strlcat+0x43>

08049f83 <udiv64>:
 8049f83:	55                   	push   ebp
 8049f84:	89 e5                	mov    ebp,esp
 8049f86:	83 ec 28             	sub    esp,0x28
 8049f89:	89 5d f4             	mov    DWORD PTR [ebp-0xc],ebx
 8049f8c:	89 75 f8             	mov    DWORD PTR [ebp-0x8],esi
 8049f8f:	89 7d fc             	mov    DWORD PTR [ebp-0x4],edi
 8049f92:	89 45 e0             	mov    DWORD PTR [ebp-0x20],eax
 8049f95:	89 55 e4             	mov    DWORD PTR [ebp-0x1c],edx
 8049f98:	8b 45 08             	mov    eax,DWORD PTR [ebp+0x8]
 8049f9b:	8b 55 0c             	mov    edx,DWORD PTR [ebp+0xc]
 8049f9e:	89 45 e8             	mov    DWORD PTR [ebp-0x18],eax
 8049fa1:	89 55 ec             	mov    DWORD PTR [ebp-0x14],edx
 8049fa4:	89 d0                	mov    eax,edx
 8049fa6:	b9 00 00 00 00       	mov    ecx,0x0
 8049fab:	09 c8                	or     eax,ecx
 8049fad:	0f 84 ec 00 00 00    	je     804a09f <udiv64+0x11c>
 8049fb3:	8b 5d e0             	mov    ebx,DWORD PTR [ebp-0x20]
 8049fb6:	8b 75 e4             	mov    esi,DWORD PTR [ebp-0x1c]
 8049fb9:	8b 45 e8             	mov    eax,DWORD PTR [ebp-0x18]
 8049fbc:	39 c3                	cmp    ebx,eax
 8049fbe:	89 f0                	mov    eax,esi
 8049fc0:	1b 45 ec             	sbb    eax,DWORD PTR [ebp-0x14]
 8049fc3:	c7 45 d8 00 00 00 00 	mov    DWORD PTR [ebp-0x28],0x0
 8049fca:	c7 45 dc 00 00 00 00 	mov    DWORD PTR [ebp-0x24],0x0
 8049fd1:	0f 82 f7 00 00 00    	jb     804a0ce <udiv64+0x14b>
 8049fd7:	89 d0                	mov    eax,edx
 8049fd9:	b9 00 00 00 00       	mov    ecx,0x0
 8049fde:	81 fa ff ff 00 00    	cmp    edx,0xffff
 8049fe4:	77 08                	ja     8049fee <udiv64+0x6b>
 8049fe6:	c1 e0 10             	shl    eax,0x10
 8049fe9:	b9 10 00 00 00       	mov    ecx,0x10
 8049fee:	3d ff ff ff 00       	cmp    eax,0xffffff
 8049ff3:	77 06                	ja     8049ffb <udiv64+0x78>
 8049ff5:	83 c1 08             	add    ecx,0x8
 8049ff8:	c1 e0 08             	shl    eax,0x8
 8049ffb:	3d ff ff ff 0f       	cmp    eax,0xfffffff
 804a000:	77 06                	ja     804a008 <udiv64+0x85>
 804a002:	83 c1 04             	add    ecx,0x4
 804a005:	c1 e0 04             	shl    eax,0x4
 804a008:	3d ff ff ff 3f       	cmp    eax,0x3fffffff
 804a00d:	77 06                	ja     804a015 <udiv64+0x92>
 804a00f:	83 c1 02             	add    ecx,0x2
 804a012:	c1 e0 02             	shl    eax,0x2
 804a015:	3d 00 00 00 80       	cmp    eax,0x80000000
 804a01a:	83 d1 00             	adc    ecx,0x0
 804a01d:	8b 45 e0             	mov    eax,DWORD PTR [ebp-0x20]
 804a020:	8b 55 e4             	mov    edx,DWORD PTR [ebp-0x1c]
 804a023:	89 d3                	mov    ebx,edx
 804a025:	d1 eb                	shr    ebx,1
 804a027:	0f ac d0 01          	shrd   eax,edx,0x1
 804a02b:	d1 ea                	shr    edx,1
 804a02d:	8b 75 e8             	mov    esi,DWORD PTR [ebp-0x18]
 804a030:	8b 7d ec             	mov    edi,DWORD PTR [ebp-0x14]
 804a033:	0f a5 f7             	shld   edi,esi,cl
 804a036:	d3 e6                	shl    esi,cl
 804a038:	f6 c1 20             	test   cl,0x20
 804a03b:	74 04                	je     804a041 <udiv64+0xbe>
 804a03d:	89 f7                	mov    edi,esi
 804a03f:	31 f6                	xor    esi,esi
 804a041:	89 da                	mov    edx,ebx
 804a043:	f7 f7                	div    edi
 804a045:	ba 1f 00 00 00       	mov    edx,0x1f
 804a04a:	29 ca                	sub    edx,ecx
 804a04c:	88 d1                	mov    cl,dl
 804a04e:	d3 e8                	shr    eax,cl
 804a050:	89 c6                	mov    esi,eax
 804a052:	bf 00 00 00 00       	mov    edi,0x0
 804a057:	89 fa                	mov    edx,edi
 804a059:	83 c0 ff             	add    eax,0xffffffff
 804a05c:	83 d2 ff             	adc    edx,0xffffffff
 804a05f:	89 d3                	mov    ebx,edx
 804a061:	8b 4d e8             	mov    ecx,DWORD PTR [ebp-0x18]
 804a064:	0f af d9             	imul   ebx,ecx
 804a067:	89 d9                	mov    ecx,ebx
 804a069:	89 45 d8             	mov    DWORD PTR [ebp-0x28],eax
 804a06c:	89 55 dc             	mov    DWORD PTR [ebp-0x24],edx
 804a06f:	89 c3                	mov    ebx,eax
 804a071:	8b 45 ec             	mov    eax,DWORD PTR [ebp-0x14]
 804a074:	0f af d8             	imul   ebx,eax
 804a077:	01 d9                	add    ecx,ebx
 804a079:	8b 45 d8             	mov    eax,DWORD PTR [ebp-0x28]
 804a07c:	f7 65 e8             	mul    DWORD PTR [ebp-0x18]
 804a07f:	01 ca                	add    edx,ecx
 804a081:	8b 4d e0             	mov    ecx,DWORD PTR [ebp-0x20]
 804a084:	8b 5d e4             	mov    ebx,DWORD PTR [ebp-0x1c]
 804a087:	29 c1                	sub    ecx,eax
 804a089:	19 d3                	sbb    ebx,edx
 804a08b:	8b 45 e8             	mov    eax,DWORD PTR [ebp-0x18]
 804a08e:	39 c1                	cmp    ecx,eax
 804a090:	89 d8                	mov    eax,ebx
 804a092:	1b 45 ec             	sbb    eax,DWORD PTR [ebp-0x14]
 804a095:	72 37                	jb     804a0ce <udiv64+0x14b>
 804a097:	89 75 d8             	mov    DWORD PTR [ebp-0x28],esi
 804a09a:	89 7d dc             	mov    DWORD PTR [ebp-0x24],edi
 804a09d:	eb 2f                	jmp    804a0ce <udiv64+0x14b>
 804a09f:	8b 45 e4             	mov    eax,DWORD PTR [ebp-0x1c]
 804a0a2:	8b 7d e8             	mov    edi,DWORD PTR [ebp-0x18]
 804a0a5:	ba 00 00 00 00       	mov    edx,0x0
 804a0aa:	f7 f7                	div    edi
 804a0ac:	89 d1                	mov    ecx,edx
 804a0ae:	89 c7                	mov    edi,eax
 804a0b0:	bb 00 00 00 00       	mov    ebx,0x0
 804a0b5:	89 cb                	mov    ebx,ecx
 804a0b7:	31 c9                	xor    ecx,ecx
 804a0b9:	8b 45 e0             	mov    eax,DWORD PTR [ebp-0x20]
 804a0bc:	ba 00 00 00 00       	mov    edx,0x0
 804a0c1:	01 c8                	add    eax,ecx
 804a0c3:	11 da                	adc    edx,ebx
 804a0c5:	f7 75 e8             	div    DWORD PTR [ebp-0x18]
 804a0c8:	89 45 d8             	mov    DWORD PTR [ebp-0x28],eax
 804a0cb:	89 7d dc             	mov    DWORD PTR [ebp-0x24],edi
 804a0ce:	8b 45 d8             	mov    eax,DWORD PTR [ebp-0x28]
 804a0d1:	8b 55 dc             	mov    edx,DWORD PTR [ebp-0x24]
 804a0d4:	8b 5d f4             	mov    ebx,DWORD PTR [ebp-0xc]
 804a0d7:	8b 75 f8             	mov    esi,DWORD PTR [ebp-0x8]
 804a0da:	8b 7d fc             	mov    edi,DWORD PTR [ebp-0x4]
 804a0dd:	89 ec                	mov    esp,ebp
 804a0df:	5d                   	pop    ebp
 804a0e0:	c3                   	ret

0804a0e1 <__divdi3>:
 804a0e1:	55                   	push   ebp
 804a0e2:	89 e5                	mov    ebp,esp
 804a0e4:	83 ec 20             	sub    esp,0x20
 804a0e7:	89 5d f4             	mov    DWORD PTR [ebp-0xc],ebx
 804a0ea:	89 75 f8             	mov    DWORD PTR [ebp-0x8],esi
 804a0ed:	89 7d fc             	mov    DWORD PTR [ebp-0x4],edi
 804a0f0:	8b 75 08             	mov    esi,DWORD PTR [ebp+0x8]
 804a0f3:	8b 7d 0c             	mov    edi,DWORD PTR [ebp+0xc]
 804a0f6:	8b 45 10             	mov    eax,DWORD PTR [ebp+0x10]
 804a0f9:	8b 55 14             	mov    edx,DWORD PTR [ebp+0x14]
 804a0fc:	89 45 e8             	mov    DWORD PTR [ebp-0x18],eax
 804a0ff:	89 55 ec             	mov    DWORD PTR [ebp-0x14],edx
 804a102:	89 f0                	mov    eax,esi
 804a104:	89 fa                	mov    edx,edi
 804a106:	85 ff                	test   edi,edi
 804a108:	78 2a                	js     804a134 <__divdi3+0x53>
 804a10a:	8b 4d e8             	mov    ecx,DWORD PTR [ebp-0x18]
 804a10d:	8b 5d ec             	mov    ebx,DWORD PTR [ebp-0x14]
 804a110:	83 7d ec 00          	cmp    DWORD PTR [ebp-0x14],0x0
 804a114:	78 27                	js     804a13d <__divdi3+0x5c>
 804a116:	89 0c 24             	mov    DWORD PTR [esp],ecx
 804a119:	89 5c 24 04          	mov    DWORD PTR [esp+0x4],ebx
 804a11d:	e8 61 fe ff ff       	call   8049f83 <udiv64>
 804a122:	33 7d ec             	xor    edi,DWORD PTR [ebp-0x14]
 804a125:	78 1f                	js     804a146 <__divdi3+0x65>
 804a127:	8b 5d f4             	mov    ebx,DWORD PTR [ebp-0xc]
 804a12a:	8b 75 f8             	mov    esi,DWORD PTR [ebp-0x8]
 804a12d:	8b 7d fc             	mov    edi,DWORD PTR [ebp-0x4]
 804a130:	89 ec                	mov    esp,ebp
 804a132:	5d                   	pop    ebp
 804a133:	c3                   	ret
 804a134:	f7 d8                	neg    eax
 804a136:	83 d2 00             	adc    edx,0x0
 804a139:	f7 da                	neg    edx
 804a13b:	eb cd                	jmp    804a10a <__divdi3+0x29>
 804a13d:	f7 d9                	neg    ecx
 804a13f:	83 d3 00             	adc    ebx,0x0
 804a142:	f7 db                	neg    ebx
 804a144:	eb d0                	jmp    804a116 <__divdi3+0x35>
 804a146:	f7 d8                	neg    eax
 804a148:	83 d2 00             	adc    edx,0x0
 804a14b:	f7 da                	neg    edx
 804a14d:	eb d8                	jmp    804a127 <__divdi3+0x46>

0804a14f <__moddi3>:
 804a14f:	55                   	push   ebp
 804a150:	89 e5                	mov    ebp,esp
 804a152:	83 ec 28             	sub    esp,0x28
 804a155:	89 5d f4             	mov    DWORD PTR [ebp-0xc],ebx
 804a158:	89 75 f8             	mov    DWORD PTR [ebp-0x8],esi
 804a15b:	89 7d fc             	mov    DWORD PTR [ebp-0x4],edi
 804a15e:	8b 75 08             	mov    esi,DWORD PTR [ebp+0x8]
 804a161:	8b 7d 0c             	mov    edi,DWORD PTR [ebp+0xc]
 804a164:	8b 45 10             	mov    eax,DWORD PTR [ebp+0x10]
 804a167:	8b 55 14             	mov    edx,DWORD PTR [ebp+0x14]
 804a16a:	89 45 e8             	mov    DWORD PTR [ebp-0x18],eax
 804a16d:	89 55 ec             	mov    DWORD PTR [ebp-0x14],edx
 804a170:	89 75 e4             	mov    DWORD PTR [ebp-0x1c],esi
 804a173:	89 f1                	mov    ecx,esi
 804a175:	89 fb                	mov    ebx,edi
 804a177:	85 ff                	test   edi,edi
 804a179:	78 3c                	js     804a1b7 <__moddi3+0x68>
 804a17b:	8b 45 e8             	mov    eax,DWORD PTR [ebp-0x18]
 804a17e:	8b 55 ec             	mov    edx,DWORD PTR [ebp-0x14]
 804a181:	83 7d ec 00          	cmp    DWORD PTR [ebp-0x14],0x0
 804a185:	78 39                	js     804a1c0 <__moddi3+0x71>
 804a187:	89 04 24             	mov    DWORD PTR [esp],eax
 804a18a:	89 54 24 04          	mov    DWORD PTR [esp+0x4],edx
 804a18e:	89 c8                	mov    eax,ecx
 804a190:	89 da                	mov    edx,ebx
 804a192:	e8 ec fd ff ff       	call   8049f83 <udiv64>
 804a197:	33 7d ec             	xor    edi,DWORD PTR [ebp-0x14]
 804a19a:	89 c1                	mov    ecx,eax
 804a19c:	78 2b                	js     804a1c9 <__moddi3+0x7a>
 804a19e:	8b 45 e8             	mov    eax,DWORD PTR [ebp-0x18]
 804a1a1:	0f af c8             	imul   ecx,eax
 804a1a4:	8b 45 e4             	mov    eax,DWORD PTR [ebp-0x1c]
 804a1a7:	29 c8                	sub    eax,ecx
 804a1a9:	99                   	cdq
 804a1aa:	8b 5d f4             	mov    ebx,DWORD PTR [ebp-0xc]
 804a1ad:	8b 75 f8             	mov    esi,DWORD PTR [ebp-0x8]
 804a1b0:	8b 7d fc             	mov    edi,DWORD PTR [ebp-0x4]
 804a1b3:	89 ec                	mov    esp,ebp
 804a1b5:	5d                   	pop    ebp
 804a1b6:	c3                   	ret
 804a1b7:	f7 d9                	neg    ecx
 804a1b9:	83 d3 00             	adc    ebx,0x0
 804a1bc:	f7 db                	neg    ebx
 804a1be:	eb bb                	jmp    804a17b <__moddi3+0x2c>
 804a1c0:	f7 d8                	neg    eax
 804a1c2:	83 d2 00             	adc    edx,0x0
 804a1c5:	f7 da                	neg    edx
 804a1c7:	eb be                	jmp    804a187 <__moddi3+0x38>
 804a1c9:	f7 d8                	neg    eax
 804a1cb:	89 c1                	mov    ecx,eax
 804a1cd:	eb cf                	jmp    804a19e <__moddi3+0x4f>

0804a1cf <__udivdi3>:
 804a1cf:	55                   	push   ebp
 804a1d0:	89 e5                	mov    ebp,esp
 804a1d2:	83 ec 08             	sub    esp,0x8
 804a1d5:	8b 45 10             	mov    eax,DWORD PTR [ebp+0x10]
 804a1d8:	8b 55 14             	mov    edx,DWORD PTR [ebp+0x14]
 804a1db:	89 04 24             	mov    DWORD PTR [esp],eax
 804a1de:	89 54 24 04          	mov    DWORD PTR [esp+0x4],edx
 804a1e2:	8b 45 08             	mov    eax,DWORD PTR [ebp+0x8]
 804a1e5:	8b 55 0c             	mov    edx,DWORD PTR [ebp+0xc]
 804a1e8:	e8 96 fd ff ff       	call   8049f83 <udiv64>
 804a1ed:	89 ec                	mov    esp,ebp
 804a1ef:	5d                   	pop    ebp
 804a1f0:	c3                   	ret

0804a1f1 <__umoddi3>:
 804a1f1:	55                   	push   ebp
 804a1f2:	89 e5                	mov    ebp,esp
 804a1f4:	83 ec 10             	sub    esp,0x10
 804a1f7:	89 5d f8             	mov    DWORD PTR [ebp-0x8],ebx
 804a1fa:	89 75 fc             	mov    DWORD PTR [ebp-0x4],esi
 804a1fd:	8b 5d 08             	mov    ebx,DWORD PTR [ebp+0x8]
 804a200:	8b 75 10             	mov    esi,DWORD PTR [ebp+0x10]
 804a203:	89 34 24             	mov    DWORD PTR [esp],esi
 804a206:	8b 45 14             	mov    eax,DWORD PTR [ebp+0x14]
 804a209:	89 44 24 04          	mov    DWORD PTR [esp+0x4],eax
 804a20d:	89 d8                	mov    eax,ebx
 804a20f:	8b 55 0c             	mov    edx,DWORD PTR [ebp+0xc]
 804a212:	e8 6c fd ff ff       	call   8049f83 <udiv64>
 804a217:	0f af c6             	imul   eax,esi
 804a21a:	89 c2                	mov    edx,eax
 804a21c:	89 d8                	mov    eax,ebx
 804a21e:	29 d0                	sub    eax,edx
 804a220:	ba 00 00 00 00       	mov    edx,0x0
 804a225:	8b 5d f8             	mov    ebx,DWORD PTR [ebp-0x8]
 804a228:	8b 75 fc             	mov    esi,DWORD PTR [ebp-0x4]
 804a22b:	89 ec                	mov    esp,ebp
 804a22d:	5d                   	pop    ebp
 804a22e:	c3                   	ret

0804a22f <__udivmoddi4>:
 804a22f:	55                   	push   ebp
 804a230:	89 e5                	mov    ebp,esp
 804a232:	83 ec 28             	sub    esp,0x28
 804a235:	89 5d f4             	mov    DWORD PTR [ebp-0xc],ebx
 804a238:	89 75 f8             	mov    DWORD PTR [ebp-0x8],esi
 804a23b:	89 7d fc             	mov    DWORD PTR [ebp-0x4],edi
 804a23e:	8b 45 08             	mov    eax,DWORD PTR [ebp+0x8]
 804a241:	8b 55 0c             	mov    edx,DWORD PTR [ebp+0xc]
 804a244:	8b 7d 10             	mov    edi,DWORD PTR [ebp+0x10]
 804a247:	8b 5d 14             	mov    ebx,DWORD PTR [ebp+0x14]
 804a24a:	89 3c 24             	mov    DWORD PTR [esp],edi
 804a24d:	89 5c 24 04          	mov    DWORD PTR [esp+0x4],ebx
 804a251:	89 45 e8             	mov    DWORD PTR [ebp-0x18],eax
 804a254:	89 55 ec             	mov    DWORD PTR [ebp-0x14],edx
 804a257:	e8 27 fd ff ff       	call   8049f83 <udiv64>
 804a25c:	89 c6                	mov    esi,eax
 804a25e:	0f af d8             	imul   ebx,eax
 804a261:	89 55 e4             	mov    DWORD PTR [ebp-0x1c],edx
 804a264:	89 d0                	mov    eax,edx
 804a266:	0f af c7             	imul   eax,edi
 804a269:	01 c3                	add    ebx,eax
 804a26b:	89 f8                	mov    eax,edi
 804a26d:	f7 e6                	mul    esi
 804a26f:	01 da                	add    edx,ebx
 804a271:	8b 4d e8             	mov    ecx,DWORD PTR [ebp-0x18]
 804a274:	8b 5d ec             	mov    ebx,DWORD PTR [ebp-0x14]
 804a277:	29 c1                	sub    ecx,eax
 804a279:	19 d3                	sbb    ebx,edx
 804a27b:	8b 45 18             	mov    eax,DWORD PTR [ebp+0x18]
 804a27e:	89 08                	mov    DWORD PTR [eax],ecx
 804a280:	89 58 04             	mov    DWORD PTR [eax+0x4],ebx
 804a283:	89 f0                	mov    eax,esi
 804a285:	8b 55 e4             	mov    edx,DWORD PTR [ebp-0x1c]
 804a288:	8b 5d f4             	mov    ebx,DWORD PTR [ebp-0xc]
 804a28b:	8b 75 f8             	mov    esi,DWORD PTR [ebp-0x8]
 804a28e:	8b 7d fc             	mov    edi,DWORD PTR [ebp-0x4]
 804a291:	89 ec                	mov    esp,ebp
 804a293:	5d                   	pop    ebp
 804a294:	c3                   	ret

Disassembly of section .text.__x86.get_pc_thunk.dx:

0804a295 <__x86.get_pc_thunk.dx>:
 804a295:	8b 14 24             	mov    edx,DWORD PTR [esp]
 804a298:	c3                   	ret

Disassembly of section .text.__x86.get_pc_thunk.bx:

0804a299 <__x86.get_pc_thunk.bx>:
 804a299:	8b 1c 24             	mov    ebx,DWORD PTR [esp]
 804a29c:	c3                   	ret

Disassembly of section .text.__x86.get_pc_thunk.di:

0804a29d <__x86.get_pc_thunk.di>:
 804a29d:	8b 3c 24             	mov    edi,DWORD PTR [esp]
 804a2a0:	c3                   	ret

Disassembly of section .text.__x86.get_pc_thunk.ax:

0804a2a1 <__x86.get_pc_thunk.ax>:
 804a2a1:	8b 04 24             	mov    eax,DWORD PTR [esp]
 804a2a4:	c3                   	ret

Disassembly of section .text.__x86.get_pc_thunk.cx:

0804a2a5 <__x86.get_pc_thunk.cx>:
 804a2a5:	8b 0c 24             	mov    ecx,DWORD PTR [esp]
 804a2a8:	c3                   	ret

Disassembly of section .text.__x86.get_pc_thunk.si:

0804a2a9 <__x86.get_pc_thunk.si>:
 804a2a9:	8b 34 24             	mov    esi,DWORD PTR [esp]
 804a2ac:	c3                   	ret
